###############################################################################
#                                                                             #
# IAR C/C++ Compiler V6.21.1.50603 for Atmel AVR        15/Jun/2015  14:34:22 #
# Copyright 1996-2013 IAR Systems AB.                                         #
#                                                                             #
#    Source file  =  C:\Daten\P2P_Demo01V2_0\appl\appFlash_simTest\src\module #
#                    Test\src\module_test_flash.c                             #
#    Command line =  C:\Daten\P2P_Demo01V2_0\appl\appFlash_simTest\src\module #
#                    Test\src\module_test_flash.c -v3 --enhanced_core -ms -o  #
#                    C:\Daten\P2P_Demo01V2_0\appl\appFlash\IAR\Debug\Obj\     #
#                    -lCN C:\Daten\P2P_Demo01V2_0\appl\appFlash\IAR\Debug\Lis #
#                    t\ -lA C:\Daten\P2P_Demo01V2_0\appl\appFlash\IAR\Debug\L #
#                    ist\ --no_cse --no_inline --no_code_motion               #
#                    --no_cross_call --no_clustering --no_tbaa --debug        #
#                    --64k_flash -DENABLE_BIT_DEFINITIONS -e --eeprom_size    #
#                    2304 --clib -Ohz                                         #
#    List file    =  C:\Daten\P2P_Demo01V2_0\appl\appFlash\IAR\Debug\List\mod #
#                    ule_test_flash.lst                                       #
#    Object file  =  C:\Daten\P2P_Demo01V2_0\appl\appFlash\IAR\Debug\Obj\modu #
#                    le_test_flash.r90                                        #
#                                                                             #
#                                                                             #
###############################################################################

C:\Daten\P2P_Demo01V2_0\appl\appFlash_simTest\src\moduleTest\src\module_test_flash.c
      1          //lint -e9059
      2          /* *C**************************************************************************
      3            Use of this software is subject to Atmel's Software License Agreement.
      4          -------------------------------------------------------------------------------
      5            $URL: http://svnservulm.corp.atmel.com/svn/CDB/Apps/SW_Lib/Car_Access/CARS_GEN2/ATAB5702A/Branches/P2P22_TXMODE_NXP/appl/appFlash/IAR/Debug/List/module_test_flash.lst $
      6            $LastChangedRevision: 328482 $
      7            $LastChangedDate: 2015-07-22 13:17:23 -0600 (Wed, 22 Jul 2015) $
      8            $LastChangedBy: grueter $
      9          -------------------------------------------------------------------------------
     10            Project:      ATA5700
     11            Target MCU:   ATA5700
     12            Compiler:     IAR C/C++ Compiler for AVR 6.30.1
     13          -------------------------------------------------------------------------------
     14          
     15          ******************************************************************************
     16          * Copyright 2011, Atmel Automotive GmbH                                       *
     17          *                                                                             *
     18          * This software is owned by the Atmel Automotive GmbH                         *
     19          * and is protected by and subject to worldwide patent protection.             *
     20          * Atmel hereby grants to licensee a personal,                                 *
     21          * non-exclusive, non-transferable license to copy, use, modify, create        *
     22          * derivative works of, and compile the Atmel Source Code and derivative       *
     23          * works for the sole purpose of creating custom software in support of        *
     24          * licensee product to be used only in conjunction with a Atmel integrated     *
     25          * circuit as specified in the applicable agreement. Any reproduction,         *
     26          * modification, translation, compilation, or representation of this           *
     27          * software except as specified above is prohibited without the express        *
     28          * written permission of Atmel.                                                *
     29          *                                                                             *
     30          * Disclaimer: ATMEL MAKES NO WARRANTY OF ANY KIND,EXPRESS OR IMPLIED,         *
     31          * WITH REGARD TO THIS MATERIAL, INCLUDING, BUT NOT LIMITED TO, THE IMPLIED    *
     32          * WARRANTIES OF MERCHANTABILITY AND FITNESS FOR A PARTICULAR PURPOSE.         *
     33          * Atmel reserves the right to make changes without further notice to the      *
     34          * materials described herein. Atmel does not assume any liability arising     *
     35          * out of the application or use of any product or circuit described herein.   *
     36          * Atmel does not authorize its products for use as critical components in     *
     37          * life-support systems where a malfunction or failure may reasonably be       *
     38          * expected to result in significant injury to the user. The inclusion of      *
     39          * Atmel products in a life-support systems application implies that the       *
     40          * manufacturer assumes all risk of such use and in doing so indemnifies       *
     41          * Atmel against all charges.                                                  *
     42          *                                                                             *
     43          * Use may be limited by and subject to the applicable Atmel software          *
     44          * license agreement.                                                          *
     45          ******************************************************************************/
     46          /** \file module_test_flash.c
     47          */
     48          
     49          //lint -restore
     50          
     51          /*===========================================================================*/
     52          /*  INCLUDES (Flash Application)                                             */
     53          /*===========================================================================*/
     54          #include "module_test_flash.h"

   \                                 In  segment ABSOLUTE, at 0x3d
   \   union <unnamed> volatile __io _A_AESCR
   \                     _A_AESCR:
   \   00000000                      DS8 1

   \                                 In  segment ABSOLUTE, at 0x3f
   \   union <unnamed> volatile __io _A_EECR
   \                     _A_EECR:
   \   00000000                      DS8 1
     55          #include "../../../../../firmware/eep/src/eep_flash.h"
     56          #include "../../../../../firmware/lfrssi/src/lfrssi_flash.h"
     57          #include "../../../../../firmware/system/src/system_flash.h"
     58          
     59          /*===========================================================================*/
     60          /*  INCLUDES (ROM firmware)                                                  */
     61          /*===========================================================================*/
     62          #include "../../../../../firmware/spi/src/spi.h"
     63          #include "../../../../../firmware/spi/src/ata5831_command_set.h"
     64          #include "../../../../../firmware/timer1/src/timer1.h"
     65          #include "../../../../../firmware/timer2/src/timer2.h"
     66          #include "../../../../../firmware/timer3/src/timer3.h"
     67          #include "../../../../../firmware/timer4/src/timer4.h"
     68          #include "../../../../../firmware/timer5/src/timer5.h"
     69          #include "../../../../../firmware/lfrssi/src/lfrssi.h"
     70          #include "../../../../../firmware/calib/src/calib.h"
     71          #include "../../../../../firmware/lfrx/src/lfrx.h"
     72          
     73          /*===========================================================================*/
     74          /*  INCLUDES (Flash Module Deliverable)                                      */
     75          /*===========================================================================*/
     76          #include "../../twi/src/twi_flash.h"
     77          #include "../../rfrcc/src/rfrcc_flash.h"
     78          
     79          /*===========================================================================*/
     80          /*  DEFINES                                                                  */
     81          /*===========================================================================*/
     82          #define IIC_SLAVE_ADDR  0x2A
     83          #define IIC_BUFFER_SIZE 16
     84          
     85          #define ATA_RFRCC_USER_CMND  0x44U
     86          #define ATA_RFRCC_SELEC_KEY  0
     87          
     88          /*===========================================================================*/
     89          /*  Modul Globals (Variables)                                                */
     90          /*===========================================================================*/

   \                                 In  segment NEAR_N, align 1, keep-with-next, root
     91          __root __no_init sModuleTest g_sModuleTest_flash;
   \                     g_sModuleTest_flash:
   \   00000000                      DS8 2

   \                                 In  segment NEAR_N, align 1, keep-with-next, root
     92          __root __no_init uint8_t g_bModuleTestBuffer_flash[MODULE_TEST_BUFFER_SIZE];
   \                     g_bModuleTestBuffer_flash:
   \   00000000                      DS8 32
     93          
     94          /* Data structures to be set by the dedicated I2Ccomponent test cases. */

   \                                 In  segment NEAR_N, align 1, keep-with-next, root
     95          __root __no_init  uint8_t g_bModuleTestIicBuffer1_flash[IIC_BUFFER_SIZE];
   \                     g_bModuleTestIicBuffer1_flash:
   \   00000000                      DS8 16

   \                                 In  segment NEAR_N, align 1, keep-with-next, root
     96          __root __no_init  uint8_t g_bModuleTestIicBuffer2_flash[IIC_BUFFER_SIZE];
   \                     g_bModuleTestIicBuffer2_flash:
   \   00000000                      DS8 16
     97          
     98          /* Data structures to be set by the dedicated EEPROM component test cases. */

   \                                 In  segment NEAR_N, align 1, keep-with-next, root
     99          __root __no_init static sEepModuleTest g_sEepModuleTest_flash;
   \                     g_sEepModuleTest_flash:
   \   00000000                      DS8 22
    100          
    101          /* Data structures to be set by the dedicated Timer component test cases. */

   \                                 In  segment NEAR_N, align 1, keep-with-next, root
    102          __root __no_init uint8_t g_bTimerModuleTestStatus_flash;
   \                     g_bTimerModuleTestStatus_flash:
   \   00000000                      DS8 1

   \                                 In  segment NEAR_N, align 1, keep-with-next, root
    103          __root __no_init static uint8_t g_bTimerModuleReturnValue_flash;
   \                     g_bTimerModuleReturnValue_flash:
   \   00000000                      DS8 1

   \                                 In  segment NEAR_N, align 1, keep-with-next, root
    104          __root __no_init static sTimerAsyn8BitParams g_sTimer8BitParams_flash;
   \                     g_sTimer8BitParams_flash:
   \   00000000                      DS8 8

   \                                 In  segment NEAR_N, align 1, keep-with-next, root
    105          __root __no_init static sTimerAsyn16BitParams g_sTimer16BitParams_flash;
   \                     g_sTimer16BitParams_flash:
   \   00000000                      DS8 12

   \                                 In  segment NEAR_N, align 1, keep-with-next, root
    106          __root __no_init static sTimerSyn16BitParams g_sTimer16BitSynParams_flash;
   \                     g_sTimer16BitSynParams_flash:
   \   00000000                      DS8 10
    107          
    108          /* Data structures to be set by the dedicated LF RSSI component test cases. */

   \                                 In  segment NEAR_N, align 1, keep-with-next
    109          __no_init sModuleTestLfRssi       static g_sModuleTestLfRssi_flash;
   \                     g_sModuleTestLfRssi_flash:
   \   00000000                      DS8 7

   \                                 In  segment NEAR_N, align 1, keep-with-next
    110          __no_init sModuleTestLfRssiRegs   static g_sModuleTestLfRssiRegs_flash;
   \                     g_sModuleTestLfRssiRegs_flash:
   \   00000000                      DS8 5

   \                                 In  segment NEAR_N, align 1, keep-with-next
    111          __no_init sModuleTestLfRssiResult static g_sModuleTestLfRssiResult_flash;
   \                     g_sModuleTestLfRssiResult_flash:
   \   00000000                      DS8 22

   \                                 In  segment NEAR_N, align 1, keep-with-next
    112          __no_init static uint16_t g_wLfRssiResultIntMeas[3];
   \                     g_wLfRssiResultIntMeas:
   \   00000000                      DS8 6

   \                                 In  segment NEAR_N, align 1, keep-with-next
    113          __no_init static uint16_t g_wLfRssiSamplesResult[6];
   \                     g_wLfRssiSamplesResult:
   \   00000000                      DS8 12

   \                                 In  segment NEAR_N, align 1, keep-with-next
    114          __no_init static uint16_t g_wLfRssiSamplesResultCorrCalc[6];
   \                     g_wLfRssiSamplesResultCorrCalc:
   \   00000000                      DS8 12

   \                                 In  segment NEAR_N, align 1, keep-with-next
    115          __no_init static uint16_t g_wLfRssiSamplesResult3dVec[2];
   \                     g_wLfRssiSamplesResult3dVec:
   \   00000000                      DS8 4

   \                                 In  segment NEAR_N, align 1, keep-with-next
    116          __no_init static uint16_t g_wLfRssiSamplesResultLin[2];
   \                     g_wLfRssiSamplesResultLin:
   \   00000000                      DS8 4
    117          
    118          /* Data structures to be set by the dedicated Watchdog component test case. */

   \                                 In  segment NEAR_N, align 1, keep-with-next, root
    119          __root __no_init static  uint8_t g_bModuleTestWdtcr_flash;
   \                     g_bModuleTestWdtcr_flash:
   \   00000000                      DS8 1
    120          
    121          /*===========================================================================*/
    122          /*  Modul Globals (Functions)                                                */
    123          /*===========================================================================*/
    124          static VOIDFUNC ATA_moduleTestWatchdog_flash_C(void);
    125          static VOIDFUNC ATA_moduleTestEep_flash_C(void);
    126          static VOIDFUNC ATA_moduleTestAes_flash_C(void);
    127          static VOIDFUNC ATA_moduleTestIicIRQ_flash_C(void);
    128          static VOIDFUNC ATA_moduleTestIicPOL_flash_C(void);
    129          static VOIDFUNC ATA_moduleTestTimer1Handling_flash_C(void);
    130          static VOIDFUNC ATA_moduleTestTimer2Handling_flash_C(void);
    131          static VOIDFUNC ATA_moduleTestTimer3Handling_flash_C(void);
    132          static VOIDFUNC ATA_moduleTestTimer4Handling_flash_C(void);
    133          static VOIDFUNC ATA_moduleTestTimer5Handling_flash_C(void);
    134          static VOIDFUNC ATA_moduleTestTimerMultipleOpen_flash_C(void);
    135          static VOIDFUNC ATA_moduleTestClkMrcFrcHandling_flash_C(void);
    136          static VOIDFUNC ATA_moduleTestClkExtClockHandling_flash_C(void);
    137          static VOIDFUNC ATA_moduleTestRfrcc_flash_C(void);
    138          static VOIDFUNC ATA_moduleTestLfRssiHandling_flash_C(void);
    139          static VOIDFUNC ATA_moduleTestLfTx_flash_C(void);
    140          static VOIDFUNC ATA_moduleTestLfRssiCalc12q4_flash_C(void);
    141          /*===========================================================================*/
    142          /*  IMPLEMENTATION                                                           */
    143          /*===========================================================================*/
    144          /*---------------------------------------------------------------------------*/
    145          /** \brief <b>ATA_moduleTestInit_flash_C</b>
    146              shall initialize the data structures used in package moduleTest.
    147          
    148              \Derived no
    149          
    150              \Rationale none
    151          
    152              \Traceability Primus2P-xxx
    153          
    154              \StackUsage SU_XXX bytes
    155          
    156              \image html ATA_moduleTestInit_flash_C.png
    157              \image rtf ATA_moduleTestInit_flash_C.png
    158              \n
    159          */
    160          /*---------------------------------------------------------------------------*/

   \                                 In  segment CODE, align 2, keep-with-next, root
    161          VOIDFUNC ATA_moduleTestInit_flash_C(void)
   \                     ATA_moduleTestInit_flash_C:
    162          {
    163              g_sModuleTest_flash.bId = 0U;
   \   00000000   E000               LDI     R16, 0
   \   00000002   9300....           STS     g_sModuleTest_flash, R16
    164              g_sModuleTest_flash.bSubId = 0U;
   \   00000006   9300....           STS     (g_sModuleTest_flash + 1), R16
    165              g_bTimerModuleTestStatus_flash = 0U;
   \   0000000A   9300....           STS     g_bTimerModuleTestStatus_flash, R16
    166              g_bTimerModuleReturnValue_flash = 0U;
   \   0000000E                      REQUIRE ?Subroutine0
   \   0000000E                      ;               // Fall through to label ?Subroutine0
    167          }

   \                                 In  segment CODE, align 2, keep-with-next
   \                     ?Subroutine0:
   \   00000000   9300....           STS     g_bTimerModuleReturnValue_flash, R16
   \   00000004   9508               RET
    168          
    169          /*---------------------------------------------------------------------------*/
    170          /** \brief <b>ATA_moduleTestSoftware_flash_C</b>
    171              shall manage the module tests for each package.
    172          
    173              \Derived no
    174          
    175              \Rationale none
    176          
    177              \Traceability Primus2P-xxx
    178          
    179              \StackUsage SU_XXX bytes
    180          
    181              \image html ATA_moduleTestSoftware_flash_C.png
    182              \image rtf ATA_moduleTestSoftware_flash_C.png
    183              \n
    184          */
    185          /*---------------------------------------------------------------------------*/

   \                                 In  segment CODE, align 2, keep-with-next, root
    186          VOIDFUNC ATA_moduleTestSoftware_flash_C()
   \                     ATA_moduleTestSoftware_flash_C:
    187          {
    188              switch(g_sModuleTest_flash.bId)
   \   00000000   9100....           LDS     R16, g_sModuleTest_flash
   \   00000004   ....               LDI     R30, LOW(`?<Jumptable for ATA_moduleTestSoftware_flash_C_0`)
   \   00000006   ....               LDI     R31, (`?<Jumptable for ATA_moduleTestSoftware_flash_C_0`) >> 8
   \   00000008   ........           JMP     ?CV_SWITCH_L06
    189              {
    190                  case MODULE_TEST_ID_SPI_WITH_INTERRUPTS:      /* MODULE SPI (normal mode)   */
    191                  case MODULE_TEST_ID_SPI_NO_INTERRUPTS:        /* MODULE SPI (checksum mode) */
    192                      ATA_moduleTestSpi_flash_C();
   \                     ??ATA_moduleTestSoftware_flash_C_0:
   \   0000000C   ........           CALL    ATA_moduleTestSpi_flash_C
    193                      break;
   \   00000010   C02C               RJMP    ??ATA_moduleTestSoftware_flash_C_1
    194          
    195                  case MODULE_TEST_ID_IIC_WITH_INTERRUPTS:
    196                      ATA_moduleTestIicIRQ_flash_C();
   \                     ??ATA_moduleTestSoftware_flash_C_2:
   \   00000012   ....               RCALL   ATA_moduleTestIicIRQ_flash_C
    197                      break;
   \   00000014   C02A               RJMP    ??ATA_moduleTestSoftware_flash_C_1
    198                  case MODULE_TEST_ID_IIC_NO_INTERRUPTS:
    199                      ATA_moduleTestIicPOL_flash_C();
   \                     ??ATA_moduleTestSoftware_flash_C_3:
   \   00000016   ....               RCALL   ATA_moduleTestIicPOL_flash_C
    200                      break;
   \   00000018   C028               RJMP    ??ATA_moduleTestSoftware_flash_C_1
    201          
    202          
    203                  case MODULE_TEST_ID_WDT:           /* Module Watchdog */
    204                      ATA_moduleTestWatchdog_flash_C();
   \                     ??ATA_moduleTestSoftware_flash_C_4:
   \   0000001A   ....               RCALL   ATA_moduleTestWatchdog_flash_C
    205                      break;
   \   0000001C   C026               RJMP    ??ATA_moduleTestSoftware_flash_C_1
    206          
    207                  case MODULE_TEST_ID_EEP:         /* MODULE EEP */
    208                      ATA_moduleTestEep_flash_C();
   \                     ??ATA_moduleTestSoftware_flash_C_5:
   \   0000001E   ....               RCALL   ATA_moduleTestEep_flash_C
    209                      break;
   \   00000020   C024               RJMP    ??ATA_moduleTestSoftware_flash_C_1
    210          
    211                  case MODULE_TEST_ID_TIMER1:      /* MODULE Timer1 */
    212                      ATA_moduleTestTimer1Handling_flash_C();
   \                     ??ATA_moduleTestSoftware_flash_C_6:
   \   00000022   ....               RCALL   ATA_moduleTestTimer1Handling_flash_C
    213                      break;
   \   00000024   C022               RJMP    ??ATA_moduleTestSoftware_flash_C_1
    214          
    215                  case MODULE_TEST_ID_TIMER2:      /* MODULE Timer2 */
    216                      ATA_moduleTestTimer2Handling_flash_C();
   \                     ??ATA_moduleTestSoftware_flash_C_7:
   \   00000026   ....               RCALL   ATA_moduleTestTimer2Handling_flash_C
    217                      break;
   \   00000028   C020               RJMP    ??ATA_moduleTestSoftware_flash_C_1
    218          
    219                  case MODULE_TEST_ID_TIMER3:      /* MODULE Timer3 */
    220                      ATA_moduleTestTimer3Handling_flash_C();
   \                     ??ATA_moduleTestSoftware_flash_C_8:
   \   0000002A   ....               RCALL   ATA_moduleTestTimer3Handling_flash_C
    221                      break;
   \   0000002C   C01E               RJMP    ??ATA_moduleTestSoftware_flash_C_1
    222          
    223                  case MODULE_TEST_ID_TIMER4:      /* MODULE Timer4 */
    224                      ATA_moduleTestTimer4Handling_flash_C();
   \                     ??ATA_moduleTestSoftware_flash_C_9:
   \   0000002E   ....               RCALL   ATA_moduleTestTimer4Handling_flash_C
    225                      break;
   \   00000030   C01C               RJMP    ??ATA_moduleTestSoftware_flash_C_1
    226          
    227                  case MODULE_TEST_ID_TIMER5:      /* MODULE Timer5 */
    228                      ATA_moduleTestTimer5Handling_flash_C();
   \                     ??ATA_moduleTestSoftware_flash_C_10:
   \   00000032   ....               RCALL   ATA_moduleTestTimer5Handling_flash_C
    229                      break;
   \   00000034   C01A               RJMP    ??ATA_moduleTestSoftware_flash_C_1
    230          
    231                  case MODULE_TEST_ID_TIMER_FAIL:  /* MODULE Timer Multiple Opening */
    232                      ATA_moduleTestTimerMultipleOpen_flash_C();
   \                     ??ATA_moduleTestSoftware_flash_C_11:
   \   00000036   ....               RCALL   ATA_moduleTestTimerMultipleOpen_flash_C
    233                      break;
   \   00000038   C018               RJMP    ??ATA_moduleTestSoftware_flash_C_1
    234          
    235                  case MODULE_TEST_ID_AES:         /* MODULE AES */
    236                      ATA_moduleTestAes_flash_C();
   \                     ??ATA_moduleTestSoftware_flash_C_12:
   \   0000003A   ....               RCALL   ATA_moduleTestAes_flash_C
    237                      break;
   \   0000003C   C016               RJMP    ??ATA_moduleTestSoftware_flash_C_1
    238          
    239                  case MODULE_TEST_ID_CLK_MRC_FRC:    /* MODULE CLOCK MRC_FRC */
    240                      ATA_moduleTestClkMrcFrcHandling_flash_C();
   \                     ??ATA_moduleTestSoftware_flash_C_13:
   \   0000003E   ....               RCALL   ATA_moduleTestClkMrcFrcHandling_flash_C
    241                      break;
   \   00000040   C014               RJMP    ??ATA_moduleTestSoftware_flash_C_1
    242          
    243                  case MODULE_TEST_ID_ROLL_CODE_CTR:
    244                      ATA_moduleTestRfrcc_flash_C();
   \                     ??ATA_moduleTestSoftware_flash_C_14:
   \   00000042   ....               RCALL   ATA_moduleTestRfrcc_flash_C
    245                    break;
   \   00000044   C012               RJMP    ??ATA_moduleTestSoftware_flash_C_1
    246          
    247                  case MODULE_TEST_ID_CLK_EXT_CLOCK:
    248                      ATA_moduleTestClkExtClockHandling_flash_C();
   \                     ??ATA_moduleTestSoftware_flash_C_15:
   \   00000046   ....               RCALL   ATA_moduleTestClkExtClockHandling_flash_C
    249                    break;
   \   00000048   C010               RJMP    ??ATA_moduleTestSoftware_flash_C_1
    250          
    251                  case MODULE_TEST_ID_LF_RSSI:        /* MODULE LF RSSI Measurement */
    252                      ATA_moduleTestLfRssiHandling_flash_C();
   \                     ??ATA_moduleTestSoftware_flash_C_16:
   \   0000004A   ....               RCALL   ATA_moduleTestLfRssiHandling_flash_C
    253                      break;
   \   0000004C   C00E               RJMP    ??ATA_moduleTestSoftware_flash_C_1
    254          
    255                  case MODULE_TEST_ID_CALIB:          /* SRC and FRC Calibration */
    256                      ATA_moduleTestCalib_flash_C();
   \                     ??ATA_moduleTestSoftware_flash_C_17:
   \   0000004E   ........           CALL    ATA_moduleTestCalib_flash_C
    257                      break;
   \   00000052   C00B               RJMP    ??ATA_moduleTestSoftware_flash_C_1
    258          
    259                  case MODULE_TEST_ID_SPI_BASIC_FUNCTIONS: /* low level functions of module SPI */
    260                      ATA_moduleTestSpiBasicFunctions_flash_C();
   \                     ??ATA_moduleTestSoftware_flash_C_18:
   \   00000054   ........           CALL    ATA_moduleTestSpiBasicFunctions_flash_C
    261                      break;
   \   00000058   C008               RJMP    ??ATA_moduleTestSoftware_flash_C_1
    262                  case MODULE_TEST_ID_RFTX:   /* MODULE RF TX module tests */
    263                      ATA_moduleTestRfTx_flash_C();
   \                     ??ATA_moduleTestSoftware_flash_C_19:
   \   0000005A   ........           CALL    ATA_moduleTestRfTx_flash_C
    264                      break;
   \   0000005E   C005               RJMP    ??ATA_moduleTestSoftware_flash_C_1
    265                  case MODULE_TEST_ID_LFTX:   /* MODULE LF TX module tests */
    266                      ATA_moduleTestLfTx_flash_C();
   \                     ??ATA_moduleTestSoftware_flash_C_20:
   \   00000060   ....               RCALL   ATA_moduleTestLfTx_flash_C
    267                      break;
   \   00000062   C003               RJMP    ??ATA_moduleTestSoftware_flash_C_1
    268                  case MODULE_TEST_ID_GLOBALS:
    269                      ATA_moduleTestGlobals_flash_C();
   \                     ??ATA_moduleTestSoftware_flash_C_21:
   \   00000064   ........           CALL    ATA_moduleTestGlobals_flash_C
    270                  case MODULE_TEST_DISABLED:      /* no module test selected */
    271                  default:
    272                      _NOP;
   \                     ??ATA_moduleTestSoftware_flash_C_22:
   \   00000068   0000               nop
    273                      break;
    274              }
    275          
    276              g_sModuleTest_flash.bId = 0U;
   \                     ??ATA_moduleTestSoftware_flash_C_1:
   \   0000006A   E000               LDI     R16, 0
   \   0000006C   9300....           STS     g_sModuleTest_flash, R16
    277          }
   \   00000070   9508               RET
    278          
    279          

   \                                 In  segment CODE, align 2, keep-with-next, root
    280          VOIDFUNC ATA_moduleTestIicPOL_flash_C(void){
   \                     ATA_moduleTestIicPOL_flash_C:
    281          
    282          
    283            }
   \   00000000   9508               RET
    284          
    285          

   \                                 In  segment CODE, align 2, keep-with-next, root
    286          VOIDFUNC ATA_moduleTestIicIRQ_flash_C(void){
   \                     ATA_moduleTestIicIRQ_flash_C:
    287              uint8_t tmp;
    288            switch(g_sModuleTest_flash.bSubId)
   \   00000000   9100....           LDS     R16, (g_sModuleTest_flash + 1)
   \   00000004   ....               LDI     R30, LOW(`?<Jumptable for ATA_moduleTestIicIRQ_flash_C>_0`)
   \   00000006   ....               LDI     R31, (`?<Jumptable for ATA_moduleTestIicIRQ_flash_C>_0`) >> 8
   \   00000008   ........           JMP     ?CV_SWITCH_L06
    289            {
    290          
    291                  case MODULE_TEST_IIC_FILL_BUFFER1:
    292                    for(tmp=0;tmp<IIC_BUFFER_SIZE;tmp++){
   \                     ??ATA_moduleTestIicIRQ_flash_C_0:
   \   0000000C   E000               LDI     R16, 0
    293                      g_bModuleTestIicBuffer1_flash[tmp] = tmp;
   \                     ??ATA_moduleTestIicIRQ_flash_C_1:
   \   0000000E   E0F0               LDI     R31, 0
   \   00000010   2FE0               MOV     R30, R16
   \   00000012   ....               SUBI    R30, LOW((-(g_bModuleTestIicBuffer1_flash) & 0xFFFF))
   \   00000014   ....               SBCI    R31, (-(g_bModuleTestIicBuffer1_flash) & 0xFFFF) >> 8
   \   00000016   8300               ST      Z, R16
    294                    }
   \   00000018   9503               INC     R16
   \   0000001A   3100               CPI     R16, 16
   \   0000001C   F008               BRCS    $+2+2
   \   0000001E   C1A6               RJMP    ??ATA_moduleTestIicIRQ_flash_C_2
   \   00000020   CFF6               RJMP    ??ATA_moduleTestIicIRQ_flash_C_1
    295              break;
    296          
    297                  case MODULE_TEST_IIC_FILL_BUFFER2:
    298                    for(tmp=0;tmp<IIC_BUFFER_SIZE;tmp++){
   \                     ??ATA_moduleTestIicIRQ_flash_C_3:
   \   00000022   E000               LDI     R16, 0
    299                      g_bModuleTestIicBuffer2_flash[tmp] = tmp;
   \                     ??ATA_moduleTestIicIRQ_flash_C_4:
   \   00000024   E0F0               LDI     R31, 0
   \   00000026   2FE0               MOV     R30, R16
   \   00000028   ....               SUBI    R30, LOW((-(g_bModuleTestIicBuffer2_flash) & 0xFFFF))
   \   0000002A   ....               SBCI    R31, (-(g_bModuleTestIicBuffer2_flash) & 0xFFFF) >> 8
   \   0000002C   8300               ST      Z, R16
    300                    }
   \   0000002E   9503               INC     R16
   \   00000030   3100               CPI     R16, 16
   \   00000032   F008               BRCS    $+2+2
   \   00000034   C19B               RJMP    ??ATA_moduleTestIicIRQ_flash_C_2
   \   00000036   CFF6               RJMP    ??ATA_moduleTestIicIRQ_flash_C_4
    301              break;
    302                  case MODULE_TEST_IIC_CLR_BUFFER1:
    303                    for(tmp=0;tmp<IIC_BUFFER_SIZE;tmp++){
   \                     ??ATA_moduleTestIicIRQ_flash_C_5:
   \   00000038   E000               LDI     R16, 0
   \   0000003A   E020               LDI     R18, 0
    304                      g_bModuleTestIicBuffer1_flash[tmp] = 0x00U;
   \                     ??ATA_moduleTestIicIRQ_flash_C_6:
   \   0000003C   E0F0               LDI     R31, 0
   \   0000003E   2FE0               MOV     R30, R16
   \   00000040   ....               SUBI    R30, LOW((-(g_bModuleTestIicBuffer1_flash) & 0xFFFF))
   \   00000042   ....               SBCI    R31, (-(g_bModuleTestIicBuffer1_flash) & 0xFFFF) >> 8
   \   00000044   8320               ST      Z, R18
    305                    }
   \   00000046   9503               INC     R16
   \   00000048   3100               CPI     R16, 16
   \   0000004A   F008               BRCS    $+2+2
   \   0000004C   C18F               RJMP    ??ATA_moduleTestIicIRQ_flash_C_2
   \   0000004E   CFF6               RJMP    ??ATA_moduleTestIicIRQ_flash_C_6
    306                break;
    307                  case MODULE_TEST_IIC_CLR_BUFFER2:
    308                    for(tmp=0;tmp<IIC_BUFFER_SIZE;tmp++){
   \                     ??ATA_moduleTestIicIRQ_flash_C_7:
   \   00000050   E000               LDI     R16, 0
   \   00000052   E020               LDI     R18, 0
    309                      g_bModuleTestIicBuffer2_flash[tmp] = 0x00U;
   \                     ??ATA_moduleTestIicIRQ_flash_C_8:
   \   00000054   E0F0               LDI     R31, 0
   \   00000056   2FE0               MOV     R30, R16
   \   00000058   ....               SUBI    R30, LOW((-(g_bModuleTestIicBuffer2_flash) & 0xFFFF))
   \   0000005A   ....               SBCI    R31, (-(g_bModuleTestIicBuffer2_flash) & 0xFFFF) >> 8
   \   0000005C   8320               ST      Z, R18
    310            }
   \   0000005E   9503               INC     R16
   \   00000060   3100               CPI     R16, 16
   \   00000062   F008               BRCS    $+2+2
   \   00000064   C183               RJMP    ??ATA_moduleTestIicIRQ_flash_C_2
   \   00000066   CFF6               RJMP    ??ATA_moduleTestIicIRQ_flash_C_8
    311                    break;
    312          
    313                  case MODULE_TEST_IIC_SET_BUFFER1:
    314                    ATA_twiSetBuffer_C(&twiCtrlBlock,&g_bModuleTestIicBuffer1_flash[0],IIC_BUFFER_SIZE);
   \                     ??ATA_moduleTestIicIRQ_flash_C_9:
   \   00000068   E140               LDI     R20, 16
   \   0000006A   ....               LDI     R18, LOW(g_bModuleTestIicBuffer1_flash)
   \   0000006C   ....               LDI     R19, (g_bModuleTestIicBuffer1_flash) >> 8
   \   0000006E   C031               RJMP    ??ATA_moduleTestIicIRQ_flash_C_10
    315                    break;
    316                  case MODULE_TEST_IIC_SET_BUFFER2:
    317                    ATA_twiSetBuffer_C(&twiCtrlBlock,&g_bModuleTestIicBuffer2_flash[0],IIC_BUFFER_SIZE);
   \                     ??ATA_moduleTestIicIRQ_flash_C_11:
   \   00000070   E140               LDI     R20, 16
   \   00000072   C02D               RJMP    ??ATA_moduleTestIicIRQ_flash_C_12
    318                    break;
    319          
    320                  case MODULE_TEST_IIC_GET_BUFFER1:
    321                    ATA_twiGetBuffer_C(&twiCtrlBlock,&g_bModuleTestIicBuffer1_flash[0],IIC_BUFFER_SIZE);
   \                     ??ATA_moduleTestIicIRQ_flash_C_13:
   \   00000074   E140               LDI     R20, 16
   \   00000076   C032               RJMP    ??ATA_moduleTestIicIRQ_flash_C_14
    322                    break;
    323                  case MODULE_TEST_IIC_GET_BUFFER2:
    324                    ATA_twiGetBuffer_C(&twiCtrlBlock,&g_bModuleTestIicBuffer2_flash[0],IIC_BUFFER_SIZE);
   \                     ??ATA_moduleTestIicIRQ_flash_C_15:
   \   00000078   E140               LDI     R20, 16
   \   0000007A   ....               LDI     R18, LOW(g_bModuleTestIicBuffer2_flash)
   \   0000007C   ....               LDI     R19, (g_bModuleTestIicBuffer2_flash) >> 8
   \   0000007E   C030               RJMP    ??ATA_moduleTestIicIRQ_flash_C_16
    325                    break;
    326                  case MODULE_TEST_IIC_SET_DATA_0:
    327                    ATA_twiSetData_C(&twiCtrlBlock,0x00U,0xAA,0x0FU);
   \                     ??ATA_moduleTestIicIRQ_flash_C_17:
   \   00000080   E04F               LDI     R20, 15
   \   00000082   EA3A               LDI     R19, 170
   \   00000084   E020               LDI     R18, 0
   \   00000086   C003               RJMP    ??ATA_moduleTestIicIRQ_flash_C_18
    328                    break;
    329                  case MODULE_TEST_IIC_SET_DATA_1:
    330                    ATA_twiSetData_C(&twiCtrlBlock,0x01U,0xBB,0x0FU);
   \                     ??ATA_moduleTestIicIRQ_flash_C_19:
   \   00000088   E04F               LDI     R20, 15
   \   0000008A   EB3B               LDI     R19, 187
   \   0000008C   E021               LDI     R18, 1
   \                     ??ATA_moduleTestIicIRQ_flash_C_18:
   \   0000008E   ....               LDI     R16, LOW(twiCtrlBlock)
   \   00000090   ....               LDI     R17, (twiCtrlBlock) >> 8
   \   00000092   ........           JMP     ATA_twiSetData_C
    331                    break;
    332                  case MODULE_TEST_IIC_SET_DATA_15:
    333                    ATA_twiSetData_C(&twiCtrlBlock,0x0FU,0xCC,0x0FU);
   \                     ??ATA_moduleTestIicIRQ_flash_C_20:
   \   00000096   E04F               LDI     R20, 15
   \   00000098   EC3C               LDI     R19, 204
   \   0000009A   E02F               LDI     R18, 15
   \   0000009C   CFF8               RJMP    ??ATA_moduleTestIicIRQ_flash_C_18
    334                    break;
    335                  case MODULE_TEST_IIC_GET_DATA_0:
    336                    ATA_twiGetData_C(&twiCtrlBlock,0x00U,&g_bModuleTestIicBuffer2_flash[0]);
   \                     ??ATA_moduleTestIicIRQ_flash_C_21:
   \   0000009E   ....               LDI     R20, LOW(g_bModuleTestIicBuffer2_flash)
   \   000000A0   ....               LDI     R21, (g_bModuleTestIicBuffer2_flash) >> 8
   \   000000A2   E020               LDI     R18, 0
   \   000000A4   C003               RJMP    ??ATA_moduleTestIicIRQ_flash_C_22
    337                    break;
    338                  case MODULE_TEST_IIC_GET_DATA_1:
    339                    ATA_twiGetData_C(&twiCtrlBlock,0x01U,&g_bModuleTestIicBuffer2_flash[0]);
   \                     ??ATA_moduleTestIicIRQ_flash_C_23:
   \   000000A6   ....               LDI     R20, LOW(g_bModuleTestIicBuffer2_flash)
   \   000000A8   ....               LDI     R21, (g_bModuleTestIicBuffer2_flash) >> 8
   \   000000AA   E021               LDI     R18, 1
   \                     ??ATA_moduleTestIicIRQ_flash_C_22:
   \   000000AC   ....               LDI     R16, LOW(twiCtrlBlock)
   \   000000AE   ....               LDI     R17, (twiCtrlBlock) >> 8
   \   000000B0   ........           JMP     ATA_twiGetData_C
    340                    break;
    341                  case MODULE_TEST_IIC_GET_DATA_15:
    342                    ATA_twiGetData_C(&twiCtrlBlock,0x0FU,&g_bModuleTestIicBuffer2_flash[0]);
   \                     ??ATA_moduleTestIicIRQ_flash_C_24:
   \   000000B4   ....               LDI     R20, LOW(g_bModuleTestIicBuffer2_flash)
   \   000000B6   ....               LDI     R21, (g_bModuleTestIicBuffer2_flash) >> 8
   \   000000B8   E02F               LDI     R18, 15
   \   000000BA   CFF8               RJMP    ??ATA_moduleTestIicIRQ_flash_C_22
    343              break;
    344                  case MODULE_TEST_IIC_SET_DATA_OUTOFBOUNDS:
    345                    ATA_twiSetData_C(&twiCtrlBlock,IIC_BUFFER_SIZE,0xAA,0x0FU);
   \                     ??ATA_moduleTestIicIRQ_flash_C_25:
   \   000000BC   E04F               LDI     R20, 15
   \   000000BE   EA3A               LDI     R19, 170
   \   000000C0   E120               LDI     R18, 16
   \   000000C2   CFE5               RJMP    ??ATA_moduleTestIicIRQ_flash_C_18
    346              break;
    347                  case MODULE_TEST_IIC_GET_DATA_OUTOFBOUNDS:
    348                    ATA_twiGetData_C(&twiCtrlBlock,IIC_BUFFER_SIZE,&g_bModuleTestIicBuffer2_flash[0]);
   \                     ??ATA_moduleTestIicIRQ_flash_C_26:
   \   000000C4   ....               LDI     R20, LOW(g_bModuleTestIicBuffer2_flash)
   \   000000C6   ....               LDI     R21, (g_bModuleTestIicBuffer2_flash) >> 8
   \   000000C8   E120               LDI     R18, 16
   \   000000CA   CFF0               RJMP    ??ATA_moduleTestIicIRQ_flash_C_22
    349              break;
    350                  case MODULE_TEST_IIC_SET_BUFFER_OUTOFBOUNDS:
    351                    ATA_twiSetBuffer_C(&twiCtrlBlock,&g_bModuleTestIicBuffer2_flash[0],(IIC_BUFFER_SIZE+1));
   \                     ??ATA_moduleTestIicIRQ_flash_C_27:
   \   000000CC   E141               LDI     R20, 17
   \                     ??ATA_moduleTestIicIRQ_flash_C_12:
   \   000000CE   ....               LDI     R18, LOW(g_bModuleTestIicBuffer2_flash)
   \   000000D0   ....               LDI     R19, (g_bModuleTestIicBuffer2_flash) >> 8
   \                     ??ATA_moduleTestIicIRQ_flash_C_10:
   \   000000D2   ....               LDI     R16, LOW(twiCtrlBlock)
   \   000000D4   ....               LDI     R17, (twiCtrlBlock) >> 8
   \   000000D6   ........           JMP     ATA_twiSetBuffer_C
    352                break;
    353                  case MODULE_TEST_IIC_GET_BUFFER_OUTOFBOUNDS:
    354                    ATA_twiGetBuffer_C(&twiCtrlBlock,&g_bModuleTestIicBuffer1_flash[0],(IIC_BUFFER_SIZE+1));
   \                     ??ATA_moduleTestIicIRQ_flash_C_28:
   \   000000DA   E141               LDI     R20, 17
   \                     ??ATA_moduleTestIicIRQ_flash_C_14:
   \   000000DC   ....               LDI     R18, LOW(g_bModuleTestIicBuffer1_flash)
   \   000000DE   ....               LDI     R19, (g_bModuleTestIicBuffer1_flash) >> 8
   \                     ??ATA_moduleTestIicIRQ_flash_C_16:
   \   000000E0   ....               LDI     R16, LOW(twiCtrlBlock)
   \   000000E2   ....               LDI     R17, (twiCtrlBlock) >> 8
   \   000000E4   ........           JMP     ATA_twiGetBuffer_C
    355                break;
    356                  case MODULE_TEST_IIC_RESET:
    357                    ATA_twiReset_C(&twiCtrlBlock);
   \                     ??ATA_moduleTestIicIRQ_flash_C_29:
   \   000000E8   ....               LDI     R16, LOW(twiCtrlBlock)
   \   000000EA   ....               LDI     R17, (twiCtrlBlock) >> 8
   \   000000EC   ........           JMP     ATA_twiReset_C
    358              break;
    359                  case MODULE_TEST_IIC_HW_SETUP:
    360                    ATA_twiHwSetup_C(&twiCtrlBlock,IIC_SLAVE_ADDR,0x00U,0x0AU,0x00U);
   \                     ??ATA_moduleTestIicIRQ_flash_C_30:
   \   000000F0   E050               LDI     R21, 0
   \   000000F2   E04A               LDI     R20, 10
   \   000000F4   E030               LDI     R19, 0
   \   000000F6   E22A               LDI     R18, 42
   \   000000F8   ....               LDI     R16, LOW(twiCtrlBlock)
   \   000000FA   ....               LDI     R17, (twiCtrlBlock) >> 8
   \   000000FC   ........           JMP     ATA_twiHwSetup_C
    361              break;
    362                  case MODULE_TEST_IIC_BUFFER_SETUP1:
    363                    ATA_twiBufferSetup_C(&twiCtrlBlock,IIC_BUFFER_SIZE,&g_bModuleTestIicBuffer1_flash[0]);
   \                     ??ATA_moduleTestIicIRQ_flash_C_31:
   \   00000100   ....               LDI     R20, LOW(g_bModuleTestIicBuffer1_flash)
   \   00000102   ....               LDI     R21, (g_bModuleTestIicBuffer1_flash) >> 8
   \   00000104   C002               RJMP    ??ATA_moduleTestIicIRQ_flash_C_32
    364                    break;
    365                  case MODULE_TEST_IIC_BUFFER_SETUP2:
    366                    ATA_twiBufferSetup_C(&twiCtrlBlock,IIC_BUFFER_SIZE,&g_bModuleTestIicBuffer2_flash[0]);
   \                     ??ATA_moduleTestIicIRQ_flash_C_33:
   \   00000106   ....               LDI     R20, LOW(g_bModuleTestIicBuffer2_flash)
   \   00000108   ....               LDI     R21, (g_bModuleTestIicBuffer2_flash) >> 8
   \                     ??ATA_moduleTestIicIRQ_flash_C_32:
   \   0000010A   E120               LDI     R18, 16
   \   0000010C   ....               LDI     R16, LOW(twiCtrlBlock)
   \   0000010E   ....               LDI     R17, (twiCtrlBlock) >> 8
   \   00000110   ........           JMP     ATA_twiBufferSetup_C
    367              break;
    368                  case MODULE_TEST_IIC_SET_BUFFER_ENABLEFLAG:
    369                    twiCtrlBlock.twiConfig |= BM_PTRVALID;
   \                     ??ATA_moduleTestIicIRQ_flash_C_34:
   \   00000114   ....               LDI     R30, LOW(twiCtrlBlock)
   \   00000116   ....               LDI     R31, (twiCtrlBlock) >> 8
   \   00000118   8104               LDD     R16, Z+4
   \   0000011A   6800               ORI     R16, 0x80
   \   0000011C   8304               STD     Z+4, R16
    370              break;
   \   0000011E   9508               RET
    371                  case MODULE_TEST_IIC_OPEN:
    372                    ATA_twiOpen_C(&twiCtrlBlock);
   \                     ??ATA_moduleTestIicIRQ_flash_C_35:
   \   00000120   ....               LDI     R16, LOW(twiCtrlBlock)
   \   00000122   ....               LDI     R17, (twiCtrlBlock) >> 8
   \   00000124   ........           JMP     ATA_twiOpen_C
    373                break;
    374                  case MODULE_TEST_IIC_USE_CONFIG1:
    375                    ATA_twiUse_C(&twiCtrlBlock,IIC_SLAVE_ADDR,0x00U,0x0AU,0x00U,IIC_BUFFER_SIZE,&g_bModuleTestIicBuffer1_flash[0],0xC0U);
   \                     ??ATA_moduleTestIicIRQ_flash_C_36:
   \   00000128   ....               LDI     R16, LOW(g_bModuleTestIicBuffer1_flash)
   \   0000012A   ....               LDI     R17, (g_bModuleTestIicBuffer1_flash) >> 8
   \   0000012C   C002               RJMP    ??ATA_moduleTestIicIRQ_flash_C_37
    376                    break;
    377                  case MODULE_TEST_IIC_USE_CONFIG2:
    378                    ATA_twiUse_C(&twiCtrlBlock,IIC_SLAVE_ADDR,0x00U,0x0AU,0x00U,IIC_BUFFER_SIZE,&g_bModuleTestIicBuffer2_flash[0],0xC0U);
   \                     ??ATA_moduleTestIicIRQ_flash_C_38:
   \   0000012E   ....               LDI     R16, LOW(g_bModuleTestIicBuffer2_flash)
   \   00000130   ....               LDI     R17, (g_bModuleTestIicBuffer2_flash) >> 8
   \                     ??ATA_moduleTestIicIRQ_flash_C_37:
   \   00000132   931A               ST      -Y, R17
   \   00000134   930A               ST      -Y, R16
   \   00000136   EC70               LDI     R23, 192
   \   00000138   E160               LDI     R22, 16
   \   0000013A   E050               LDI     R21, 0
   \   0000013C   E04A               LDI     R20, 10
   \                     ??ATA_moduleTestIicIRQ_flash_C_39:
   \   0000013E   E030               LDI     R19, 0
   \   00000140   E22A               LDI     R18, 42
   \                     ??ATA_moduleTestIicIRQ_flash_C_40:
   \   00000142   ....               LDI     R16, LOW(twiCtrlBlock)
   \   00000144   ....               LDI     R17, (twiCtrlBlock) >> 8
   \   00000146   ........           JMP     ATA_twiUse_C
    379              break;
    380                  case MODULE_TEST_IIC_USE_CONFIG3:
    381                    ATA_twiUse_C(&twiCtrlBlock,IIC_SLAVE_ADDR,0x00U,0x0BU,0x00U,IIC_BUFFER_SIZE,&g_bModuleTestIicBuffer1_flash[0],0xC0U);
   \                     ??ATA_moduleTestIicIRQ_flash_C_41:
   \   0000014A   ....               LDI     R16, LOW(g_bModuleTestIicBuffer1_flash)
   \   0000014C   ....               LDI     R17, (g_bModuleTestIicBuffer1_flash) >> 8
   \   0000014E   931A               ST      -Y, R17
   \   00000150   930A               ST      -Y, R16
   \   00000152   EC70               LDI     R23, 192
   \   00000154   E160               LDI     R22, 16
   \   00000156   E050               LDI     R21, 0
   \   00000158   E04B               LDI     R20, 11
   \   0000015A   CFF1               RJMP    ??ATA_moduleTestIicIRQ_flash_C_39
    382                    break;
    383                  case MODULE_TEST_IIC_USE_CONFIG4:
    384                    ATA_twiUse_C(&twiCtrlBlock,0x01U,0x00U,0x0AU,0x00U,IIC_BUFFER_SIZE,&g_bModuleTestIicBuffer1_flash[0],0xC0U);
   \                     ??ATA_moduleTestIicIRQ_flash_C_42:
   \   0000015C   ....               LDI     R16, LOW(g_bModuleTestIicBuffer1_flash)
   \   0000015E   ....               LDI     R17, (g_bModuleTestIicBuffer1_flash) >> 8
   \   00000160   931A               ST      -Y, R17
   \   00000162   930A               ST      -Y, R16
   \   00000164   EC70               LDI     R23, 192
   \   00000166   E160               LDI     R22, 16
   \   00000168   E050               LDI     R21, 0
   \   0000016A   E04A               LDI     R20, 10
   \   0000016C   E030               LDI     R19, 0
   \   0000016E   E021               LDI     R18, 1
   \   00000170   CFE8               RJMP    ??ATA_moduleTestIicIRQ_flash_C_40
    385              break;
    386                  case MODULE_TEST_IIC_SRAM_RESET:
    387                    twiCtrlBlock.twiAddr = 0x00U;
   \                     ??ATA_moduleTestIicIRQ_flash_C_43:
   \   00000172   E000               LDI     R16, 0
   \   00000174   9300....           STS     twiCtrlBlock, R16
    388                    twiCtrlBlock.twiAddrMsk = 0x00U;
   \   00000178   9300....           STS     (twiCtrlBlock + 1), R16
    389                    twiCtrlBlock.twiBaudRate = 0x00U;
   \   0000017C   9300....           STS     (twiCtrlBlock + 2), R16
    390                    twiCtrlBlock.twiPrescaler = 0x00U;
   \   00000180   9300....           STS     (twiCtrlBlock + 3), R16
    391                    twiCtrlBlock.twiConfig = 0x00U;
   \   00000184   9300....           STS     (twiCtrlBlock + 4), R16
    392                    twiCtrlBlock.twiStatus = 0x00U;
   \   00000188   9300....           STS     (twiCtrlBlock + 5), R16
    393                    twiCtrlBlock.twiByteCount = 0x00U;
   \   0000018C   9300....           STS     (twiCtrlBlock + 6), R16
    394                    twiCtrlBlock.twiDataTx = 0x00U;
   \   00000190   9300....           STS     (twiCtrlBlock + 7), R16
    395                    twiCtrlBlock.twiBufLen = 0x00U;
   \   00000194   9300....           STS     (twiCtrlBlock + 8), R16
    396                    twiCtrlBlock.twiBuffer = (uint8_t *)0x0000;
   \   00000198   9300....           STS     (twiCtrlBlock + 9), R16
   \   0000019C   9300....           STS     (twiCtrlBlock + 10), R16
    397                    break;
   \   000001A0   9508               RET
    398                  case MODULE_TEST_IIC_TRIGGER_MASTERTX:
    399                    *twiCtrlBlock.twiBuffer = 0xF0U;//address is 1111000 , Master-TX
    400                    twiCtrlBlock.twiDataTx = 0x10U;
    401                    ATA_twiMasterTrigger_C(&twiCtrlBlock);
    402                    break;
    403                  case MODULE_TEST_IIC_ERROR_RESET1:
    404                  case MODULE_TEST_IIC_ERROR_RESET2:
    405                  case MODULE_TEST_IIC_ERROR_RESET3:
    406                  case MODULE_TEST_IIC_ERROR_RESET4:
    407                  case MODULE_TEST_IIC_ERROR_RESET5:
    408                  case MODULE_TEST_IIC_ERROR_RESET6:
    409                  case MODULE_TEST_IIC_ERROR_RESET7:
    410                    twiCtrlBlock.twiStatus &= ~(BM_CONFERRORTWI|BM_TWITRXERROR);
   \                     ??ATA_moduleTestIicIRQ_flash_C_44:
   \   000001A2   9100....           LDS     R16, (twiCtrlBlock + 5)
   \   000001A6   7D0B               ANDI    R16, 0xDB
   \   000001A8   9300....           STS     (twiCtrlBlock + 5), R16
    411              break;
   \   000001AC   9508               RET
    412                  case MODULE_TEST_IIC_DO_MASTER_TX:
    413                    ATA_twiReset_C(&twiCtrlBlock);
   \                     ??ATA_moduleTestIicIRQ_flash_C_45:
   \   000001AE   ....               LDI     R16, LOW(twiCtrlBlock)
   \   000001B0   ....               LDI     R17, (twiCtrlBlock) >> 8
   \   000001B2   ........           CALL    ATA_twiReset_C
    414                    ATA_twiUse_C(&twiCtrlBlock,IIC_SLAVE_ADDR,0x00U,0x0AU,0x00U,IIC_BUFFER_SIZE,&g_bModuleTestIicBuffer1_flash[0],0xC0U);
   \   000001B6   ....               LDI     R16, LOW(g_bModuleTestIicBuffer1_flash)
   \   000001B8   ....               LDI     R17, (g_bModuleTestIicBuffer1_flash) >> 8
   \   000001BA   931A               ST      -Y, R17
   \   000001BC   930A               ST      -Y, R16
   \   000001BE   EC70               LDI     R23, 192
   \   000001C0   E160               LDI     R22, 16
   \   000001C2   E050               LDI     R21, 0
   \   000001C4   E04A               LDI     R20, 10
   \   000001C6   E030               LDI     R19, 0
   \   000001C8   E22A               LDI     R18, 42
   \   000001CA   ....               LDI     R16, LOW(twiCtrlBlock)
   \   000001CC   ....               LDI     R17, (twiCtrlBlock) >> 8
   \   000001CE   ........           CALL    ATA_twiUse_C
    415                    for(tmp=0;tmp<IIC_BUFFER_SIZE;tmp++){
   \   000001D2   E000               LDI     R16, 0
    416                      g_bModuleTestIicBuffer1_flash[tmp] = tmp;
   \                     ??ATA_moduleTestIicIRQ_flash_C_46:
   \   000001D4   E0F0               LDI     R31, 0
   \   000001D6   2FE0               MOV     R30, R16
   \   000001D8   ....               SUBI    R30, LOW((-(g_bModuleTestIicBuffer1_flash) & 0xFFFF))
   \   000001DA   ....               SBCI    R31, (-(g_bModuleTestIicBuffer1_flash) & 0xFFFF) >> 8
   \   000001DC   8300               ST      Z, R16
    417            }
   \   000001DE   9503               INC     R16
   \   000001E0   3100               CPI     R16, 16
   \   000001E2   F3C0               BRCS    ??ATA_moduleTestIicIRQ_flash_C_46
    418                    *twiCtrlBlock.twiBuffer = 0xF0U;//address is 1111000 , Master-TX
   \                     ??ATA_moduleTestIicIRQ_flash_C_47:
   \   000001E4   EF00               LDI     R16, 240
   \   000001E6   91E0....           LDS     R30, (twiCtrlBlock + 9)
   \   000001EA   91F0....           LDS     R31, (twiCtrlBlock + 10)
   \   000001EE   8300               ST      Z, R16
    419                    twiCtrlBlock.twiDataTx = 0x10U;
   \   000001F0   E100               LDI     R16, 16
   \                     ??ATA_moduleTestIicIRQ_flash_C_48:
   \   000001F2   9300....           STS     (twiCtrlBlock + 7), R16
    420                    ATA_twiMasterTrigger_C(&twiCtrlBlock);
   \                     ??ATA_moduleTestIicIRQ_flash_C_49:
   \   000001F6   ....               LDI     R16, LOW(twiCtrlBlock)
   \   000001F8   ....               LDI     R17, (twiCtrlBlock) >> 8
   \   000001FA   ........           JMP     ATA_twiMasterTrigger_C
    421                    break;
    422                  case MODULE_TEST_IIC_TRIGGER_MASTERTX_NODATA:
    423                    *twiCtrlBlock.twiBuffer = 0xF0U;//address is 1111000 , Master-TX
   \                     ??ATA_moduleTestIicIRQ_flash_C_50:
   \   000001FE   EF00               LDI     R16, 240
   \                     ??ATA_moduleTestIicIRQ_flash_C_51:
   \   00000200   91E0....           LDS     R30, (twiCtrlBlock + 9)
   \   00000204   91F0....           LDS     R31, (twiCtrlBlock + 10)
   \   00000208   8300               ST      Z, R16
    424                    twiCtrlBlock.twiDataTx = 0x00U;
   \   0000020A   E000               LDI     R16, 0
   \   0000020C   CFF2               RJMP    ??ATA_moduleTestIicIRQ_flash_C_48
    425                    ATA_twiMasterTrigger_C(&twiCtrlBlock);
    426                    break;
    427                  case MODULE_TEST_IIC_RETRIGGER_MASTERTX:
    428                    ATA_twiMasterTrigger_C(&twiCtrlBlock);
    429              break;
    430                  case MODULE_TEST_IIC_TRIGGER_MASTERRX_NODATA:
    431                    *twiCtrlBlock.twiBuffer = 0xF1U;//address is 1111000 , Master-RX
   \                     ??ATA_moduleTestIicIRQ_flash_C_52:
   \   0000020E   EF01               LDI     R16, 241
   \   00000210   CFF7               RJMP    ??ATA_moduleTestIicIRQ_flash_C_51
    432                    twiCtrlBlock.twiDataTx = 0x00U;
    433                    ATA_twiMasterTrigger_C(&twiCtrlBlock);
    434              break;
    435                  case MODULE_TEST_IIC_TRIGGER_MASTERRX:
    436                    *twiCtrlBlock.twiBuffer = 0xF1U;//address is 1111000 , Master-RX
   \                     ??ATA_moduleTestIicIRQ_flash_C_53:
   \   00000212   EF01               LDI     R16, 241
   \   00000214   91E0....           LDS     R30, (twiCtrlBlock + 9)
   \   00000218   91F0....           LDS     R31, (twiCtrlBlock + 10)
   \   0000021C   8300               ST      Z, R16
    437                    twiCtrlBlock.twiDataTx = 0x02U;
   \   0000021E   E002               LDI     R16, 2
   \   00000220   CFE8               RJMP    ??ATA_moduleTestIicIRQ_flash_C_48
    438                    ATA_twiMasterTrigger_C(&twiCtrlBlock);
    439              break;
    440                  case MODULE_TEST_IIC_DO_MASTER_RX:
    441                    ATA_twiReset_C(&twiCtrlBlock);
   \                     ??ATA_moduleTestIicIRQ_flash_C_54:
   \   00000222   ....               LDI     R16, LOW(twiCtrlBlock)
   \   00000224   ....               LDI     R17, (twiCtrlBlock) >> 8
   \   00000226   ........           CALL    ATA_twiReset_C
    442                    ATA_twiUse_C(&twiCtrlBlock,IIC_SLAVE_ADDR,0x00U,0x0AU,0x00U,IIC_BUFFER_SIZE,&g_bModuleTestIicBuffer1_flash[0],0xC0U);
   \   0000022A   ....               LDI     R16, LOW(g_bModuleTestIicBuffer1_flash)
   \   0000022C   ....               LDI     R17, (g_bModuleTestIicBuffer1_flash) >> 8
   \   0000022E   931A               ST      -Y, R17
   \   00000230   930A               ST      -Y, R16
   \   00000232   EC70               LDI     R23, 192
   \   00000234   E160               LDI     R22, 16
   \   00000236   E050               LDI     R21, 0
   \   00000238   E04A               LDI     R20, 10
   \   0000023A   E030               LDI     R19, 0
   \   0000023C   E22A               LDI     R18, 42
   \   0000023E   ....               LDI     R16, LOW(twiCtrlBlock)
   \   00000240   ....               LDI     R17, (twiCtrlBlock) >> 8
   \   00000242   ........           CALL    ATA_twiUse_C
    443                    for(tmp=0;tmp<IIC_BUFFER_SIZE;tmp++){
   \   00000246   E000               LDI     R16, 0
   \   00000248   E020               LDI     R18, 0
    444                      g_bModuleTestIicBuffer1_flash[tmp] = 0x00U;
   \                     ??ATA_moduleTestIicIRQ_flash_C_55:
   \   0000024A   E0F0               LDI     R31, 0
   \   0000024C   2FE0               MOV     R30, R16
   \   0000024E   ....               SUBI    R30, LOW((-(g_bModuleTestIicBuffer1_flash) & 0xFFFF))
   \   00000250   ....               SBCI    R31, (-(g_bModuleTestIicBuffer1_flash) & 0xFFFF) >> 8
   \   00000252   8320               ST      Z, R18
    445            }
   \   00000254   9503               INC     R16
   \   00000256   3100               CPI     R16, 16
   \   00000258   F3C0               BRCS    ??ATA_moduleTestIicIRQ_flash_C_55
    446                    *twiCtrlBlock.twiBuffer = 0xF1U;//address is 1111000 , Master-RX
   \                     ??ATA_moduleTestIicIRQ_flash_C_56:
   \   0000025A   EF01               LDI     R16, 241
   \                     ??ATA_moduleTestIicIRQ_flash_C_57:
   \   0000025C   91E0....           LDS     R30, (twiCtrlBlock + 9)
   \   00000260   91F0....           LDS     R31, (twiCtrlBlock + 10)
   \   00000264   8300               ST      Z, R16
    447                    twiCtrlBlock.twiDataTx = 0x08U;
   \   00000266   E008               LDI     R16, 8
   \   00000268   CFC4               RJMP    ??ATA_moduleTestIicIRQ_flash_C_48
    448                    ATA_twiMasterTrigger_C(&twiCtrlBlock);
    449                    break;
    450                  case MODULE_TEST_IIC_RETRIGGER_MASTERRX:
    451                    *twiCtrlBlock.twiBuffer = 0xF1U;//address is 1111000 , Master-RX
    452                    twiCtrlBlock.twiDataTx = 0x08U;
    453                    ATA_twiMasterTrigger_C(&twiCtrlBlock);
    454                    break;
    455                  case MODULE_TEST_IIC_CLR_ERROR_ENA_EA:
    456                    ATA_twiClrError_C(&twiCtrlBlock);
   \                     ??ATA_moduleTestIicIRQ_flash_C_58:
   \   0000026A   ....               LDI     R16, LOW(twiCtrlBlock)
   \   0000026C   ....               LDI     R17, (twiCtrlBlock) >> 8
   \   0000026E   ........           CALL    ATA_twiClrError_C
    457                    ATA_twiClrRxDataPend_C(&twiCtrlBlock);
   \   00000272   ....               LDI     R16, LOW(twiCtrlBlock)
   \   00000274   ....               LDI     R17, (twiCtrlBlock) >> 8
   \   00000276   ........           JMP     ATA_twiClrRxDataPend_C
    458                    break;
    459                  case MODULE_TEST_IIC_SETDATATX_LEN:
    460                    ATA_twiUse_C(&twiCtrlBlock,0xF0U,0x00U,0x0AU,0x00U,IIC_BUFFER_SIZE,&g_bModuleTestIicBuffer1_flash[0],0xC0U);
   \                     ??ATA_moduleTestIicIRQ_flash_C_59:
   \   0000027A   ....               LDI     R16, LOW(g_bModuleTestIicBuffer1_flash)
   \   0000027C   ....               LDI     R17, (g_bModuleTestIicBuffer1_flash) >> 8
   \   0000027E   931A               ST      -Y, R17
   \   00000280   930A               ST      -Y, R16
   \   00000282   EC70               LDI     R23, 192
   \   00000284   E160               LDI     R22, 16
   \   00000286   E050               LDI     R21, 0
   \   00000288   E04A               LDI     R20, 10
   \   0000028A   E030               LDI     R19, 0
   \   0000028C   EF20               LDI     R18, 240
   \   0000028E   ....               LDI     R16, LOW(twiCtrlBlock)
   \   00000290   ....               LDI     R17, (twiCtrlBlock) >> 8
   \   00000292   ........           CALL    ATA_twiUse_C
    461                    twiCtrlBlock.twiDataTx = 0x08U;
   \   00000296   E008               LDI     R16, 8
   \   00000298   C00F               RJMP    ??ATA_moduleTestIicIRQ_flash_C_60
    462              break;
    463                  case MODULE_TEST_IIC_CLRDATATX_LEN:
    464                    ATA_twiUse_C(&twiCtrlBlock,0xF0U,0x00U,0x0AU,0x00U,IIC_BUFFER_SIZE,&g_bModuleTestIicBuffer1_flash[0],0xC0U);
   \                     ??ATA_moduleTestIicIRQ_flash_C_61:
   \   0000029A   ....               LDI     R16, LOW(g_bModuleTestIicBuffer1_flash)
   \   0000029C   ....               LDI     R17, (g_bModuleTestIicBuffer1_flash) >> 8
   \   0000029E   931A               ST      -Y, R17
   \   000002A0   930A               ST      -Y, R16
   \   000002A2   EC70               LDI     R23, 192
   \   000002A4   E160               LDI     R22, 16
   \   000002A6   E050               LDI     R21, 0
   \   000002A8   E04A               LDI     R20, 10
   \   000002AA   E030               LDI     R19, 0
   \   000002AC   EF20               LDI     R18, 240
   \   000002AE   ....               LDI     R16, LOW(twiCtrlBlock)
   \   000002B0   ....               LDI     R17, (twiCtrlBlock) >> 8
   \   000002B2   ........           CALL    ATA_twiUse_C
    465                    twiCtrlBlock.twiDataTx = 0x00U;
   \   000002B6   E000               LDI     R16, 0
   \                     ??ATA_moduleTestIicIRQ_flash_C_60:
   \   000002B8   9300....           STS     (twiCtrlBlock + 7), R16
    466              break;
   \   000002BC   9508               RET
    467              case MODULE_TEST_IIC_TRIGGER_MASTERRX_BADLEN:
    468                    ATA_twiReset_C(&twiCtrlBlock);
   \                     ??ATA_moduleTestIicIRQ_flash_C_62:
   \   000002BE   ....               LDI     R16, LOW(twiCtrlBlock)
   \   000002C0   ....               LDI     R17, (twiCtrlBlock) >> 8
   \   000002C2   ........           CALL    ATA_twiReset_C
    469                    ATA_twiUse_C(&twiCtrlBlock,IIC_SLAVE_ADDR,0x00U,0x0AU,0x00U,IIC_BUFFER_SIZE,&g_bModuleTestIicBuffer1_flash[0],0xC0U);
   \   000002C6   ....               LDI     R16, LOW(g_bModuleTestIicBuffer1_flash)
   \   000002C8   ....               LDI     R17, (g_bModuleTestIicBuffer1_flash) >> 8
   \   000002CA   931A               ST      -Y, R17
   \   000002CC   930A               ST      -Y, R16
   \   000002CE   EC70               LDI     R23, 192
   \   000002D0   E160               LDI     R22, 16
   \   000002D2   E050               LDI     R21, 0
   \   000002D4   E04A               LDI     R20, 10
   \   000002D6   E030               LDI     R19, 0
   \   000002D8   E22A               LDI     R18, 42
   \   000002DA   ....               LDI     R16, LOW(twiCtrlBlock)
   \   000002DC   ....               LDI     R17, (twiCtrlBlock) >> 8
   \   000002DE   ........           CALL    ATA_twiUse_C
    470                    *twiCtrlBlock.twiBuffer = 0xF1U;//address is 1111000 , Master-RX
   \   000002E2   EF01               LDI     R16, 241
   \   000002E4   91E0....           LDS     R30, (twiCtrlBlock + 9)
   \   000002E8   91F0....           LDS     R31, (twiCtrlBlock + 10)
   \   000002EC   8300               ST      Z, R16
    471                    twiCtrlBlock.twiDataTx = 0x01U;
   \   000002EE   E001               LDI     R16, 1
   \   000002F0   CF80               RJMP    ??ATA_moduleTestIicIRQ_flash_C_48
    472                    ATA_twiMasterTrigger_C(&twiCtrlBlock);
    473              break;
    474              case MODULE_TEST_IIC_DO_MASTER_TX8:
    475                    ATA_twiReset_C(&twiCtrlBlock);
   \                     ??ATA_moduleTestIicIRQ_flash_C_63:
   \   000002F2   ....               LDI     R16, LOW(twiCtrlBlock)
   \   000002F4   ....               LDI     R17, (twiCtrlBlock) >> 8
   \   000002F6   ........           CALL    ATA_twiReset_C
    476                    ATA_twiUse_C(&twiCtrlBlock,IIC_SLAVE_ADDR,0x00U,0x0AU,0x00U,IIC_BUFFER_SIZE,&g_bModuleTestIicBuffer1_flash[0],0xC0U);
   \   000002FA   ....               LDI     R16, LOW(g_bModuleTestIicBuffer1_flash)
   \   000002FC   ....               LDI     R17, (g_bModuleTestIicBuffer1_flash) >> 8
   \   000002FE   931A               ST      -Y, R17
   \   00000300   930A               ST      -Y, R16
   \   00000302   EC70               LDI     R23, 192
   \   00000304   E160               LDI     R22, 16
   \   00000306   E050               LDI     R21, 0
   \   00000308   E04A               LDI     R20, 10
   \   0000030A   E030               LDI     R19, 0
   \   0000030C   E22A               LDI     R18, 42
   \   0000030E   ....               LDI     R16, LOW(twiCtrlBlock)
   \   00000310   ....               LDI     R17, (twiCtrlBlock) >> 8
   \   00000312   ........           CALL    ATA_twiUse_C
    477                    for(tmp=0;tmp<0x08U;tmp++){
   \   00000316   E000               LDI     R16, 0
   \   00000318   E525               LDI     R18, 85
    478                      g_bModuleTestIicBuffer1_flash[tmp] = 0x55;
   \                     ??ATA_moduleTestIicIRQ_flash_C_64:
   \   0000031A   E0F0               LDI     R31, 0
   \   0000031C   2FE0               MOV     R30, R16
   \   0000031E   ....               SUBI    R30, LOW((-(g_bModuleTestIicBuffer1_flash) & 0xFFFF))
   \   00000320   ....               SBCI    R31, (-(g_bModuleTestIicBuffer1_flash) & 0xFFFF) >> 8
   \   00000322   8320               ST      Z, R18
    479                    }
   \   00000324   9503               INC     R16
   \   00000326   3008               CPI     R16, 8
   \   00000328   F4E8               BRCC    ??ATA_moduleTestIicIRQ_flash_C_65
   \   0000032A   CFF7               RJMP    ??ATA_moduleTestIicIRQ_flash_C_64
    480                    *twiCtrlBlock.twiBuffer = 0xF0U;//address is 1111000 , Master-TX
    481                    twiCtrlBlock.twiDataTx = 0x08U;
    482                    ATA_twiMasterTrigger_C(&twiCtrlBlock);
    483              break;
    484              case MODULE_TEST_IIC_DO_MASTER_TX_POLL:
    485                    ATA_twiReset_C(&twiCtrlBlock);
   \                     ??ATA_moduleTestIicIRQ_flash_C_66:
   \   0000032C   ....               LDI     R16, LOW(twiCtrlBlock)
   \   0000032E   ....               LDI     R17, (twiCtrlBlock) >> 8
   \   00000330   ........           CALL    ATA_twiReset_C
    486                    ATA_twiUse_C(&twiCtrlBlock,IIC_SLAVE_ADDR,0x00U,0x0AU,0x00U,IIC_BUFFER_SIZE,&g_bModuleTestIicBuffer1_flash[0],0x80U);
   \   00000334   ....               LDI     R16, LOW(g_bModuleTestIicBuffer1_flash)
   \   00000336   ....               LDI     R17, (g_bModuleTestIicBuffer1_flash) >> 8
   \   00000338   931A               ST      -Y, R17
   \   0000033A   930A               ST      -Y, R16
   \   0000033C   E870               LDI     R23, 128
   \   0000033E   E160               LDI     R22, 16
   \   00000340   E050               LDI     R21, 0
   \   00000342   E04A               LDI     R20, 10
   \   00000344   E030               LDI     R19, 0
   \   00000346   E22A               LDI     R18, 42
   \   00000348   ....               LDI     R16, LOW(twiCtrlBlock)
   \   0000034A   ....               LDI     R17, (twiCtrlBlock) >> 8
   \   0000034C   ........           CALL    ATA_twiUse_C
    487                    for(tmp=0;tmp<0x08;tmp++){
   \   00000350   E000               LDI     R16, 0
   \   00000352   EA2A               LDI     R18, 170
    488                      g_bModuleTestIicBuffer1_flash[tmp] = 0xAA;
   \                     ??ATA_moduleTestIicIRQ_flash_C_67:
   \   00000354   E0F0               LDI     R31, 0
   \   00000356   2FE0               MOV     R30, R16
   \   00000358   ....               SUBI    R30, LOW((-(g_bModuleTestIicBuffer1_flash) & 0xFFFF))
   \   0000035A   ....               SBCI    R31, (-(g_bModuleTestIicBuffer1_flash) & 0xFFFF) >> 8
   \   0000035C   8320               ST      Z, R18
    489                    }
   \   0000035E   9503               INC     R16
   \   00000360   3008               CPI     R16, 8
   \   00000362   F3C0               BRCS    ??ATA_moduleTestIicIRQ_flash_C_67
    490                    *twiCtrlBlock.twiBuffer = 0xF0U;//address is 1111000 , Master-TX
   \                     ??ATA_moduleTestIicIRQ_flash_C_65:
   \   00000364   EF00               LDI     R16, 240
   \   00000366   CF7A               RJMP    ??ATA_moduleTestIicIRQ_flash_C_57
    491                    twiCtrlBlock.twiDataTx = 0x08U;
    492                    ATA_twiMasterTrigger_C(&twiCtrlBlock);
    493              break;
    494              case MODULE_TEST_IIC_POLL_I2CR:
    495                  ATA_twiServeIsr_C();
   \                     ??ATA_moduleTestIicIRQ_flash_C_68:
   \   00000368   ........           CALL    ATA_twiServeIsr_C
    496              break;
    497          
    498              default:
    499                break;
    500            }
    501          }
   \                     ??ATA_moduleTestIicIRQ_flash_C_2:
   \   0000036C   9508               RET
    502          
    503          
    504          

   \                                 In  segment CODE, align 2, keep-with-next, root
    505          VOIDFUNC ATA_moduleTestWatchdog_flash_C(void) /* Primus2P - 1319 */
   \                     ATA_moduleTestWatchdog_flash_C:
    506          {
    507              switch (g_sModuleTest_flash.bSubId)
   \   00000000   9100....           LDS     R16, (g_sModuleTest_flash + 1)
   \   00000004   2300               TST     R16
   \   00000006   F029               BREQ    ??ATA_moduleTestWatchdog_flash_C_0
   \   00000008   950A               DEC     R16
   \   0000000A   F041               BREQ    ??ATA_moduleTestWatchdog_flash_C_1
   \   0000000C   950A               DEC     R16
   \   0000000E   F041               BREQ    ??ATA_moduleTestWatchdog_flash_C_2
   \   00000010   9508               RET
    508              {
    509                  case ATA_WATCHDOG_ENABLE:
    510                    /* Enable watchdog with the given settings. */
    511                    ATA_globalsWdtEnable_C(g_bModuleTestWdtcr_flash);
   \                     ??ATA_moduleTestWatchdog_flash_C_0:
   \   00000012   9100....           LDS     R16, g_bModuleTestWdtcr_flash
   \   00000016   ........           CALL    ATA_globalsWdtEnable_C
    512                    while(1);
   \                     ??ATA_moduleTestWatchdog_flash_C_3:
   \   0000001A   CFFF               RJMP    ??ATA_moduleTestWatchdog_flash_C_3
    513                    break;
    514          
    515                  case ATA_WATCHDOG_DISABLE:
    516                    ATA_globalsWdtDisable_C();
   \                     ??ATA_moduleTestWatchdog_flash_C_1:
   \   0000001C   ........           JMP     ATA_globalsWdtDisable_C
    517                    break;
    518          
    519                  /* Test POWER_DOWN sleep mode */
    520                  case ATA_SLEEP_ENABLE:
    521                    ATA_globalsSleep_C(0x00U);
   \                     ??ATA_moduleTestWatchdog_flash_C_2:
   \   00000020   E000               LDI     R16, 0
   \   00000022   ........           JMP     ATA_globalsSleep_C
    522                    break;
    523              }
    524          }
    525          
    526          /* EEPROM test function */

   \                                 In  segment CODE, align 2, keep-with-next, root
    527          VOIDFUNC ATA_moduleTestEep_flash_C(void)
   \                     ATA_moduleTestEep_flash_C:
    528          {
    529              switch (g_sModuleTest_flash.bSubId)
   \   00000000   9100....           LDS     R16, (g_sModuleTest_flash + 1)
   \   00000004   ....               LDI     R30, LOW(`?<Jumptable for ATA_moduleTestEep_flash_C>_0`)
   \   00000006   ....               LDI     R31, (`?<Jumptable for ATA_moduleTestEep_flash_C>_0`) >> 8
   \   00000008   ........           JMP     ?CV_SWITCH_L06
    530              {
    531                  /* Clear EEPROM module test handler parameter. */
    532                  case ATA_EEP_CLEAR_MODULE_HANDLER_PARAMETERS:
    533                    g_sEepModuleTest_flash.eepErrorCode = EEC_NOT_USED;
   \                     ??ATA_moduleTestEep_flash_C_0:
   \   0000000C   E007               LDI     R16, 7
   \   0000000E   9300....           STS     g_sEepModuleTest_flash, R16
    534                    g_sEepModuleTest_flash.eepAddress = 0x0000U;
   \   00000012   E000               LDI     R16, 0
   \   00000014   9300....           STS     (g_sEepModuleTest_flash + 1), R16
   \   00000018   9300....           STS     (g_sEepModuleTest_flash + 2), R16
    535                    g_sEepModuleTest_flash.eepData[0] = 0x00U;
   \   0000001C   9300....           STS     (g_sEepModuleTest_flash + 3), R16
    536                    g_sEepModuleTest_flash.eepData[1] = 0x00U;
   \   00000020   9300....           STS     (g_sEepModuleTest_flash + 4), R16
    537                    g_sEepModuleTest_flash.eepData[2] = 0x00U;
   \   00000024   9300....           STS     (g_sEepModuleTest_flash + 5), R16
    538                    g_sEepModuleTest_flash.eepData[3] = 0x00U;
   \   00000028   9300....           STS     (g_sEepModuleTest_flash + 6), R16
    539                    g_sEepModuleTest_flash.eepData[4] = 0x00U;
   \   0000002C   9300....           STS     (g_sEepModuleTest_flash + 7), R16
    540                    g_sEepModuleTest_flash.eepData[5] = 0x00U;
   \   00000030   9300....           STS     (g_sEepModuleTest_flash + 8), R16
    541                    g_sEepModuleTest_flash.eepData[6] = 0x00U;
   \   00000034   9300....           STS     (g_sEepModuleTest_flash + 9), R16
    542                    g_sEepModuleTest_flash.eepData[7] = 0x00U;
   \   00000038   9300....           STS     (g_sEepModuleTest_flash + 10), R16
    543                    g_sEepModuleTest_flash.eepData[8] = 0x00U;
   \   0000003C   9300....           STS     (g_sEepModuleTest_flash + 11), R16
    544                    g_sEepModuleTest_flash.eepData[9] = 0x00U;
   \   00000040   9300....           STS     (g_sEepModuleTest_flash + 12), R16
    545                    g_sEepModuleTest_flash.eepData[10] = 0x00U;
   \   00000044   9300....           STS     (g_sEepModuleTest_flash + 13), R16
    546                    g_sEepModuleTest_flash.eepData[11] = 0x00U;
   \   00000048   9300....           STS     (g_sEepModuleTest_flash + 14), R16
    547                    g_sEepModuleTest_flash.eepData[12] = 0x00U;
   \   0000004C   9300....           STS     (g_sEepModuleTest_flash + 15), R16
    548                    g_sEepModuleTest_flash.eepData[13] = 0x00U;
   \   00000050   9300....           STS     (g_sEepModuleTest_flash + 16), R16
    549                    g_sEepModuleTest_flash.eepData[14] = 0x00U;
   \   00000054   9300....           STS     (g_sEepModuleTest_flash + 17), R16
    550                    g_sEepModuleTest_flash.eepData[15] = 0x00U;
   \   00000058   9300....           STS     (g_sEepModuleTest_flash + 18), R16
    551                    g_sEepModuleTest_flash.eepDataLength = 0x00U;
   \   0000005C   9300....           STS     (g_sEepModuleTest_flash + 19), R16
    552                    g_sEepModuleTest_flash.eepAccessRightValue = 0x00U;
   \   00000060   9300....           STS     (g_sEepModuleTest_flash + 20), R16
    553                    g_sEepModuleTest_flash.eepAccessRightMask = 0x00U;
   \   00000064   9300....           STS     (g_sEepModuleTest_flash + 21), R16
    554                    break;
   \   00000068   9508               RET
    555          
    556                  /* Single Byte Write Access */
    557                  case ATA_EEP_SINGLE_BYTE_WRITE_ACCESS:
    558                    g_sEepModuleTest_flash.eepErrorCode = ATA_eepWriteBytes_C(&g_sEepModuleTest_flash.eepData[0], (uint16_t)g_sEepModuleTest_flash.eepAddress,1U);
   \                     ??ATA_moduleTestEep_flash_C_1:
   \   0000006A   E041               LDI     R20, 1
   \   0000006C   9120....           LDS     R18, (g_sEepModuleTest_flash + 1)
   \   00000070   9130....           LDS     R19, (g_sEepModuleTest_flash + 2)
   \   00000074   ....               LDI     R16, LOW((g_sEepModuleTest_flash + 3))
   \   00000076   ....               LDI     R17, HIGH((g_sEepModuleTest_flash + 3))
   \   00000078   ........           CALL    ATA_eepWriteBytes_C
   \   0000007C   9300....           STS     g_sEepModuleTest_flash, R16
    559          
    560                    /* Wait until EEPROM write operation is finished */
    561                    while(EECR & BM_NVMBSY){}
   \                     ??ATA_moduleTestEep_flash_C_2:
   \   00000080   99FF               SBIC    0x1F, 0x07
   \   00000082   CFFE               RJMP    ??ATA_moduleTestEep_flash_C_2
   \   00000084   9508               RET
    562                    break;
    563          
    564                  /* Single Byte Read Access */
    565                  case ATA_EEP_SINGLE_BYTE_READ_ACCESS:
    566                    g_sEepModuleTest_flash.eepErrorCode = ATA_eepReadBytes_C(&g_sEepModuleTest_flash.eepData[0], g_sEepModuleTest_flash.eepAddress, 1U);
   \                     ??ATA_moduleTestEep_flash_C_3:
   \   00000086   E041               LDI     R20, 1
   \   00000088   C011               RJMP    ??ATA_moduleTestEep_flash_C_4
    567                    break;
    568          
    569                  /* Multi Byte Write Access */
    570                  case ATA_EEP_MULTI_BYTE_WRITE_ACCESS:
    571                    g_sEepModuleTest_flash.eepErrorCode = ATA_eepWriteBytes_C(&g_sEepModuleTest_flash.eepData[0], (uint16_t)g_sEepModuleTest_flash.eepAddress, g_sEepModuleTest_flash.eepDataLength);
   \                     ??ATA_moduleTestEep_flash_C_5:
   \   0000008A   9140....           LDS     R20, (g_sEepModuleTest_flash + 19)
   \   0000008E   9120....           LDS     R18, (g_sEepModuleTest_flash + 1)
   \   00000092   9130....           LDS     R19, (g_sEepModuleTest_flash + 2)
   \   00000096   ....               LDI     R16, LOW((g_sEepModuleTest_flash + 3))
   \   00000098   ....               LDI     R17, HIGH((g_sEepModuleTest_flash + 3))
   \   0000009A   ........           CALL    ATA_eepWriteBytes_C
   \   0000009E   9300....           STS     g_sEepModuleTest_flash, R16
    572          
    573                    /* Wait until EEPROM write operation is finished */
    574                    while(EECR & BM_NVMBSY){}
   \                     ??ATA_moduleTestEep_flash_C_6:
   \   000000A2   99FF               SBIC    0x1F, 0x07
   \   000000A4   CFFE               RJMP    ??ATA_moduleTestEep_flash_C_6
   \   000000A6   9508               RET
    575                    break;
    576          
    577                  /* Multi Byte Write Access */
    578                  case ATA_EEP_MULTI_BYTE_READ_ACCESS:
    579                    g_sEepModuleTest_flash.eepErrorCode = ATA_eepReadBytes_C(&g_sEepModuleTest_flash.eepData[0], (uint16_t)g_sEepModuleTest_flash.eepAddress, g_sEepModuleTest_flash.eepDataLength);
   \                     ??ATA_moduleTestEep_flash_C_7:
   \   000000A8   9140....           LDS     R20, (g_sEepModuleTest_flash + 19)
   \                     ??ATA_moduleTestEep_flash_C_4:
   \   000000AC   9120....           LDS     R18, (g_sEepModuleTest_flash + 1)
   \   000000B0   9130....           LDS     R19, (g_sEepModuleTest_flash + 2)
   \   000000B4   ....               LDI     R16, LOW((g_sEepModuleTest_flash + 3))
   \   000000B6   ....               LDI     R17, HIGH((g_sEepModuleTest_flash + 3))
   \   000000B8   ........           CALL    ATA_eepReadBytes_C
   \   000000BC   9300....           STS     g_sEepModuleTest_flash, R16
    580                    break;
   \   000000C0   9508               RET
    581          
    582                  /* Change Access Rights via FUSE */
    583                  case ATA_EEP_CHANGE_ACCESS_RIGHTS_FUSE:
    584                    g_sEepModuleTest_flash.eepErrorCode = ATA_eepEEPaccessRightsChange_C(5U, 0x83U);
   \                     ??ATA_moduleTestEep_flash_C_8:
   \   000000C2   E813               LDI     R17, 131
   \   000000C4   E005               LDI     R16, 5
   \   000000C6   ........           CALL    ATA_eepEEPaccessRightsChange_C
   \   000000CA   9300....           STS     g_sEepModuleTest_flash, R16
    585                    g_sEepModuleTest_flash.eepErrorCode = ATA_eepEEPaccessRightsChange_C(6U, 0x82U);
   \   000000CE   E812               LDI     R17, 130
   \   000000D0   E006               LDI     R16, 6
   \   000000D2   ........           CALL    ATA_eepEEPaccessRightsChange_C
   \   000000D6   9300....           STS     g_sEepModuleTest_flash, R16
    586                    g_sEepModuleTest_flash.eepErrorCode = ATA_eepEEPaccessRightsChange_C(7U, 0x81U);
   \   000000DA   E811               LDI     R17, 129
   \   000000DC   E007               LDI     R16, 7
   \   000000DE   ........           CALL    ATA_eepEEPaccessRightsChange_C
   \   000000E2   9300....           STS     g_sEepModuleTest_flash, R16
    587                    g_sEepModuleTest_flash.eepErrorCode = ATA_eepEEPaccessRightsChange_C(8U, 0x80U);
   \   000000E6   E810               LDI     R17, 128
   \   000000E8   E008               LDI     R16, 8
   \   000000EA   ........           CALL    ATA_eepEEPaccessRightsChange_C
   \   000000EE   9300....           STS     g_sEepModuleTest_flash, R16
    588                    g_sEepModuleTest_flash.eepErrorCode = ATA_eepEEPaccessRightsChange_C(9U, 0x83U);
   \   000000F2   E813               LDI     R17, 131
   \   000000F4   E009               LDI     R16, 9
   \   000000F6   ........           CALL    ATA_eepEEPaccessRightsChange_C
   \   000000FA   9300....           STS     g_sEepModuleTest_flash, R16
    589                    g_sEepModuleTest_flash.eepErrorCode = ATA_eepEEPaccessRightsChange_C(10U, 0x82U);
   \   000000FE   E812               LDI     R17, 130
   \   00000100   E00A               LDI     R16, 10
   \   00000102   ........           CALL    ATA_eepEEPaccessRightsChange_C
   \   00000106   9300....           STS     g_sEepModuleTest_flash, R16
    590                    g_sEepModuleTest_flash.eepErrorCode = ATA_eepEEPaccessRightsChange_C(11U, 0x81U);
   \   0000010A   E811               LDI     R17, 129
   \   0000010C   E00B               LDI     R16, 11
   \   0000010E   ........           CALL    ATA_eepEEPaccessRightsChange_C
   \   00000112   9300....           STS     g_sEepModuleTest_flash, R16
    591                    g_sEepModuleTest_flash.eepErrorCode = ATA_eepEEPaccessRightsChange_C(12U, 0x80U);
   \   00000116   E810               LDI     R17, 128
   \   00000118   E00C               LDI     R16, 12
   \   0000011A   ........           CALL    ATA_eepEEPaccessRightsChange_C
   \   0000011E   9300....           STS     g_sEepModuleTest_flash, R16
    592          
    593                    /* Wait until EEPROM write operation is finished */
    594                    while(EECR & BM_NVMBSY){}
   \                     ??ATA_moduleTestEep_flash_C_9:
   \   00000122   99FF               SBIC    0x1F, 0x07
   \   00000124   CFFE               RJMP    ??ATA_moduleTestEep_flash_C_9
   \   00000126   9508               RET
    595                    break;
    596          
    597                  /* Change Access Rights via FUSE (invalid) */
    598                  case ATA_EEP_CHANGE_ACCESS_RIGHTS_FUSE_FAIL:
    599                    g_sEepModuleTest_flash.eepErrorCode = ATA_eepEEPaccessRightsChange_C(5U, 0x80U);
   \                     ??ATA_moduleTestEep_flash_C_10:
   \   00000128   E810               LDI     R17, 128
   \   0000012A   E005               LDI     R16, 5
   \   0000012C   ........           CALL    ATA_eepEEPaccessRightsChange_C
   \   00000130   9300....           STS     g_sEepModuleTest_flash, R16
    600                    g_sEepModuleTest_flash.eepErrorCode = ATA_eepEEPaccessRightsChange_C(6U, 0x81U);
   \   00000134   E811               LDI     R17, 129
   \   00000136   E006               LDI     R16, 6
   \   00000138   ........           CALL    ATA_eepEEPaccessRightsChange_C
   \   0000013C   9300....           STS     g_sEepModuleTest_flash, R16
    601                    g_sEepModuleTest_flash.eepErrorCode = ATA_eepEEPaccessRightsChange_C(7U, 0x82U);
   \   00000140   E812               LDI     R17, 130
   \   00000142   E007               LDI     R16, 7
   \   00000144   ........           CALL    ATA_eepEEPaccessRightsChange_C
   \   00000148   9300....           STS     g_sEepModuleTest_flash, R16
    602                    g_sEepModuleTest_flash.eepErrorCode = ATA_eepEEPaccessRightsChange_C(8U, 0x83U);
   \   0000014C   E813               LDI     R17, 131
   \   0000014E   E008               LDI     R16, 8
   \   00000150   ........           CALL    ATA_eepEEPaccessRightsChange_C
   \   00000154   9300....           STS     g_sEepModuleTest_flash, R16
    603                    g_sEepModuleTest_flash.eepErrorCode = ATA_eepEEPaccessRightsChange_C(9U, 0x80U);
   \   00000158   E810               LDI     R17, 128
   \   0000015A   E009               LDI     R16, 9
   \   0000015C   ........           CALL    ATA_eepEEPaccessRightsChange_C
   \   00000160   9300....           STS     g_sEepModuleTest_flash, R16
    604                    g_sEepModuleTest_flash.eepErrorCode = ATA_eepEEPaccessRightsChange_C(10U, 0x81U);
   \   00000164   E811               LDI     R17, 129
   \   00000166   E00A               LDI     R16, 10
   \   00000168   ........           CALL    ATA_eepEEPaccessRightsChange_C
   \   0000016C   9300....           STS     g_sEepModuleTest_flash, R16
    605                    g_sEepModuleTest_flash.eepErrorCode = ATA_eepEEPaccessRightsChange_C(11U, 0x82U);
   \   00000170   E812               LDI     R17, 130
   \   00000172   E00B               LDI     R16, 11
   \   00000174   ........           CALL    ATA_eepEEPaccessRightsChange_C
   \   00000178   9300....           STS     g_sEepModuleTest_flash, R16
    606                    g_sEepModuleTest_flash.eepErrorCode = ATA_eepEEPaccessRightsChange_C(12U, 0x83U);
   \   0000017C   E813               LDI     R17, 131
   \   0000017E   E00C               LDI     R16, 12
   \   00000180   ........           CALL    ATA_eepEEPaccessRightsChange_C
   \   00000184   9300....           STS     g_sEepModuleTest_flash, R16
    607          
    608                    /* Wait until EEPROM write operation is finished */
    609                    while(EECR & BM_NVMBSY){}
   \                     ??ATA_moduleTestEep_flash_C_11:
   \   00000188   99FF               SBIC    0x1F, 0x07
   \   0000018A   CFFE               RJMP    ??ATA_moduleTestEep_flash_C_11
   \   0000018C   9508               RET
    610                    break;
    611          
    612                  /* Change Access Rights via Register */
    613                  case ATA_EEP_CHANGE_ACCESS_RIGHTS_REGISTER:
    614                    g_sEepModuleTest_flash.eepErrorCode = ATA_eepEEPaccessRightsChange_C(g_sEepModuleTest_flash.eepData[0], g_sEepModuleTest_flash.eepData[1]);
   \                     ??ATA_moduleTestEep_flash_C_12:
   \   0000018E   9110....           LDS     R17, (g_sEepModuleTest_flash + 4)
   \   00000192   9100....           LDS     R16, (g_sEepModuleTest_flash + 3)
   \   00000196   ........           CALL    ATA_eepEEPaccessRightsChange_C
   \   0000019A   9300....           STS     g_sEepModuleTest_flash, R16
    615          
    616                    /* Wait until EEPROM write operation is finished */
    617                    while(EECR & BM_NVMBSY){}
   \                     ??ATA_moduleTestEep_flash_C_13:
   \   0000019E   99FF               SBIC    0x1F, 0x07
   \   000001A0   CFFE               RJMP    ??ATA_moduleTestEep_flash_C_13
   \   000001A2   9508               RET
    618                    break;
    619          
    620                  case ATA_EEP_FUSE_WRITE_TEST:
    621                      ATA_eepFusesFix_C(0x55U);
   \                     ??ATA_moduleTestEep_flash_C_14:
   \   000001A4   E505               LDI     R16, 85
   \   000001A6   ........           CALL    ATA_eepFusesFix_C
    622                      while(EECR&(BITMASK(NVMBSY)));
   \                     ??ATA_moduleTestEep_flash_C_15:
   \   000001AA   99FF               SBIC    0x1F, 0x07
   \   000001AC   CFFE               RJMP    ??ATA_moduleTestEep_flash_C_15
   \   000001AE   9508               RET
    623                      break;
    624                  /* Wrong sub id loaded by test case. */
    625                  default:
    626                     _NOP;
   \                     ??ATA_moduleTestEep_flash_C_16:
   \   000001B0   0000               nop
    627              }
    628          }
   \   000001B2   9508               RET
   \   000001B4                      REQUIRE _A_EECR
    629          
    630          
    631          /* AES test function */

   \                                 In  segment CODE, align 2, keep-with-next, root
    632          VOIDFUNC ATA_moduleTestAes_flash_C(void)
   \                     ATA_moduleTestAes_flash_C:
    633          {
    634              switch (g_sModuleTest_flash.bSubId)
   \   00000000   9100....           LDS     R16, (g_sModuleTest_flash + 1)
   \   00000004   ....               LDI     R30, LOW(`?<Jumptable for ATA_moduleTestAes_flash_C>_0`)
   \   00000006   ....               LDI     R31, (`?<Jumptable for ATA_moduleTestAes_flash_C>_0`) >> 8
   \   00000008   ........           JMP     ?CV_SWITCH_L06
    635              {
    636                  /* Initialize AES component data. */
    637                  case ATA_AES_INIT_SECR_KEY1:
    638                    ATA_aesSetConfig_C(AES_USE_SECRET_KEY_A, 0u, 0xF0U);
   \                     ??ATA_moduleTestAes_flash_C_0:
   \   0000000C   EF20               LDI     R18, 240
   \   0000000E   E010               LDI     R17, 0
   \   00000010   E000               LDI     R16, 0
   \   00000012   C003               RJMP    ??ATA_moduleTestAes_flash_C_1
    639                    break;
    640          
    641                  case ATA_AES_INIT_SECR_KEY2:
    642                    ATA_aesSetConfig_C(AES_USE_SECRET_KEY_B, 0u, 0x4FU);
   \                     ??ATA_moduleTestAes_flash_C_2:
   \   00000014   E42F               LDI     R18, 79
   \   00000016   E010               LDI     R17, 0
   \   00000018   E001               LDI     R16, 1
   \                     ??ATA_moduleTestAes_flash_C_1:
   \   0000001A   ........           JMP     ATA_aesSetConfig_C
    643                    break;
    644          
    645                  case ATA_AES_INIT_COMM_KEY2:
    646                    ATA_aesSetConfig_C(AES_USE_COMMON_KEY_2, 0x20U, 0u);
   \                     ??ATA_moduleTestAes_flash_C_3:
   \   0000001E   E020               LDI     R18, 0
   \   00000020   E210               LDI     R17, 32
   \   00000022   E800               LDI     R16, 128
   \   00000024   CFFA               RJMP    ??ATA_moduleTestAes_flash_C_1
    647                    break;
    648          
    649                  /* AES encryption */
    650                  case ATA_AES_ENCRYPTION:
    651                      ATA_aesEncryptData_C();
    652                      break;
    653          
    654                  /* AES decryption */
    655                  case ATA_AES_DECRYPTION:
    656                      ATA_aesDecryptData_C();
    657                      break;
    658          
    659                  /* AES run error during encryption with interrupt mode configured */
    660                  case ATA_AES_RUN_ERROR_ENCRYPTION_INT_MODE:
    661                      ATA_aesEncryptData_C();
   \                     ??ATA_moduleTestAes_flash_C_4:
   \   00000026   ........           CALL    ATA_aesEncryptData_C
    662                      while ((AESCR & BM_AESE)== 0)
   \                     ??ATA_moduleTestAes_flash_C_5:
   \   0000002A   99EF               SBIC    0x1D, 0x07
   \   0000002C   C00B               RJMP    ??ATA_moduleTestAes_flash_C_6
   \   0000002E   CFFD               RJMP    ??ATA_moduleTestAes_flash_C_5
    663                      {;}
    664                      break;
    665          
    666                  /* AES run error during encryption with polling mode configured */
    667                  case ATA_AES_RUN_ERROR_ENCRYPTION_POLL_MODE:
    668                      ATA_aesEncryptData_C();
   \                     ??ATA_moduleTestAes_flash_C_7:
   \   00000030   ........           JMP     ATA_aesEncryptData_C
    669                      break;
    670          
    671                   /* AES run error during decryption with interrupt mode configured.
    672                      Reading from register AESCR already creates an AES error ?!*/
    673                  case ATA_AES_RUN_ERROR_DECRYPTION_INT_MODE:
    674                      ATA_aesDecryptData_C();
   \                     ??ATA_moduleTestAes_flash_C_8:
   \   00000034   ........           CALL    ATA_aesDecryptData_C
    675                      while ((AESCR & BM_AESE)== 0)
   \                     ??ATA_moduleTestAes_flash_C_9:
   \   00000038   99EF               SBIC    0x1D, 0x07
   \   0000003A   C004               RJMP    ??ATA_moduleTestAes_flash_C_6
   \   0000003C   CFFD               RJMP    ??ATA_moduleTestAes_flash_C_9
    676                      {;}
    677                      break;
    678          
    679                   /* AES run error during decryption with polling mode configured */
    680                  case ATA_AES_RUN_ERROR_DECRYPTION_POLL_MODE:
    681                      ATA_aesDecryptData_C();
   \                     ??ATA_moduleTestAes_flash_C_10:
   \   0000003E   ........           JMP     ATA_aesDecryptData_C
    682                      break;
    683          
    684                  /* Wrong sub id loaded by test case. */
    685                  default:
    686                     _NOP;
   \                     ??ATA_moduleTestAes_flash_C_11:
   \   00000042   0000               nop
    687              }
    688          }
   \                     ??ATA_moduleTestAes_flash_C_6:
   \   00000044   9508               RET
   \   00000046                      REQUIRE _A_AESCR
    689          
    690          
    691          /* Timer1 handling */

   \                                 In  segment CODE, align 2, keep-with-next, root
    692          VOIDFUNC ATA_moduleTestTimer1Handling_flash_C(void)
   \                     ATA_moduleTestTimer1Handling_flash_C:
    693          {
    694              switch (g_sModuleTest_flash.bSubId)
   \   00000000   9100....           LDS     R16, (g_sModuleTest_flash + 1)
   \   00000004   2300               TST     R16
   \   00000006   F049               BREQ    ??ATA_moduleTestTimer1Handling_flash_C_0
   \   00000008   950A               DEC     R16
   \   0000000A   F061               BREQ    ??ATA_moduleTestTimer1Handling_flash_C_1
   \   0000000C   950A               DEC     R16
   \   0000000E   F031               BREQ    ??ATA_moduleTestTimer1Handling_flash_C_2
   \   00000010   5002               SUBI    R16, 2
   \   00000012   F031               BREQ    ??ATA_moduleTestTimer1Handling_flash_C_3
   \   00000014   950A               DEC     R16
   \   00000016   F021               BREQ    ??ATA_moduleTestTimer1Handling_flash_C_3
   \   00000018   C00A               RJMP    ??ATA_moduleTestTimer1Handling_flash_C_4
    695              {
    696                  /* Timer1 Initialization */
    697                  case ATA_TIMER_INIT:
    698                    ATA_timer1Init_C();
   \                     ??ATA_moduleTestTimer1Handling_flash_C_0:
   \   0000001A   ....               RJMP    ?Subroutine1
    699                    break;
    700          
    701                  /* Timer1 open in C code */
    702                  case ATA_TIMER_OPEN_C:
    703                    g_bTimerModuleReturnValue_flash = ATA_timer1Open_C(&g_sTimer8BitParams_flash);
    704                    break;
    705          
    706                  /* Timer1 close in C code */
    707                  case ATA_TIMER_CLOSE_C:
    708                    ATA_timer1Close_C();
   \                     ??ATA_moduleTestTimer1Handling_flash_C_2:
   \   0000001C   ........           JMP     ATA_timer1Close_C
    709                    break;
    710          
    711                  /* Timer1 Compare Match Interrupt Handling */
    712                  case ATA_TIMER_COM_INTHANDLER_ASM:
    713                    ATA_timer1Init_C();
    714                    g_bTimerModuleReturnValue_flash = ATA_timer1Open_C(&g_sTimer8BitParams_flash);
    715                    break;
    716          
    717                  /* Timer1 Counter Overflow Interrupt Handling */
    718                  case ATA_TIMER_OVF_INTHANDLER_ASM:
    719                    ATA_timer1Init_C();
   \                     ??ATA_moduleTestTimer1Handling_flash_C_3:
   \   00000020   ........           CALL    ATA_timer1Init_C
    720                    g_bTimerModuleReturnValue_flash = ATA_timer1Open_C(&g_sTimer8BitParams_flash);
   \                     ??ATA_moduleTestTimer1Handling_flash_C_1:
   \   00000024   ....               LDI     R16, LOW(g_sTimer8BitParams_flash)
   \   00000026   ....               LDI     R17, (g_sTimer8BitParams_flash) >> 8
   \   00000028   ........           CALL    ATA_timer1Open_C
   \   0000002C   ....               RJMP    ?Subroutine0
    721                    break;
    722          
    723                  /* Wrong sub id loaded by test case. */
    724                  default:
    725                     _NOP;
   \                     ??ATA_moduleTestTimer1Handling_flash_C_4:
   \   0000002E   0000               nop
    726              }
    727          }
   \   00000030   9508               RET

   \                                 In  segment CODE, align 2, keep-with-next
   \                     ?Subroutine1:
   \   00000000   ........           JMP     ATA_timer1Init_C
    728          
    729          /* Timer2 handling */

   \                                 In  segment CODE, align 2, keep-with-next, root
    730          VOIDFUNC ATA_moduleTestTimer2Handling_flash_C(void)
   \                     ATA_moduleTestTimer2Handling_flash_C:
    731          {
    732              switch (g_sModuleTest_flash.bSubId)
   \   00000000   9100....           LDS     R16, (g_sModuleTest_flash + 1)
   \   00000004   2300               TST     R16
   \   00000006   F049               BREQ    ??ATA_moduleTestTimer2Handling_flash_C_0
   \   00000008   950A               DEC     R16
   \   0000000A   F069               BREQ    ??ATA_moduleTestTimer2Handling_flash_C_1
   \   0000000C   950A               DEC     R16
   \   0000000E   F039               BREQ    ??ATA_moduleTestTimer2Handling_flash_C_2
   \   00000010   5002               SUBI    R16, 2
   \   00000012   F039               BREQ    ??ATA_moduleTestTimer2Handling_flash_C_3
   \   00000014   950A               DEC     R16
   \   00000016   F029               BREQ    ??ATA_moduleTestTimer2Handling_flash_C_3
   \   00000018   C00B               RJMP    ??ATA_moduleTestTimer2Handling_flash_C_4
    733              {
    734                  /* Timer2 Initialization */
    735                  case ATA_TIMER_INIT:
    736                    ATA_timer2Init_C();
   \                     ??ATA_moduleTestTimer2Handling_flash_C_0:
   \   0000001A   ........           JMP     ATA_timer2Init_C
    737                    break;
    738          
    739                  /* Timer2 open in C code */
    740                  case ATA_TIMER_OPEN_C:
    741                    g_bTimerModuleReturnValue_flash = ATA_timer2Open_C(&g_sTimer8BitParams_flash);
    742                    break;
    743          
    744                  /* Timer2 close in C code */
    745                  case ATA_TIMER_CLOSE_C:
    746                    ATA_timer2Close_C();
   \                     ??ATA_moduleTestTimer2Handling_flash_C_2:
   \   0000001E   ........           JMP     ATA_timer2Close_C
    747                    break;
    748          
    749                  /* Timer2 Compare Match Interrupt Handling */
    750                  case ATA_TIMER_COM_INTHANDLER_ASM:
    751                    ATA_timer2Init_C();
    752                    g_bTimerModuleReturnValue_flash = ATA_timer2Open_C(&g_sTimer8BitParams_flash);
    753                    break;
    754          
    755                  /* Timer2 Counter Overflow Interrupt Handling */
    756                  case ATA_TIMER_OVF_INTHANDLER_ASM:
    757                    ATA_timer2Init_C();
   \                     ??ATA_moduleTestTimer2Handling_flash_C_3:
   \   00000022   ........           CALL    ATA_timer2Init_C
    758                    g_bTimerModuleReturnValue_flash = ATA_timer2Open_C(&g_sTimer8BitParams_flash);
   \                     ??ATA_moduleTestTimer2Handling_flash_C_1:
   \   00000026   ....               LDI     R16, LOW(g_sTimer8BitParams_flash)
   \   00000028   ....               LDI     R17, (g_sTimer8BitParams_flash) >> 8
   \   0000002A   ........           CALL    ATA_timer2Open_C
   \   0000002E   ....               RJMP    ?Subroutine0
    759                    break;
    760          
    761                  /* Wrong sub id loaded by test case. */
    762                  default:
    763                     _NOP;
   \                     ??ATA_moduleTestTimer2Handling_flash_C_4:
   \   00000030   0000               nop
    764              }
    765          }
   \   00000032   9508               RET
    766          
    767          /* Timer3 handling */

   \                                 In  segment CODE, align 2, keep-with-next, root
    768          VOIDFUNC ATA_moduleTestTimer3Handling_flash_C(void)
   \                     ATA_moduleTestTimer3Handling_flash_C:
    769          {
    770              switch (g_sModuleTest_flash.bSubId)
   \   00000000   9100....           LDS     R16, (g_sModuleTest_flash + 1)
   \   00000004   2300               TST     R16
   \   00000006   F059               BREQ    ??ATA_moduleTestTimer3Handling_flash_C_0
   \   00000008   950A               DEC     R16
   \   0000000A   F079               BREQ    ??ATA_moduleTestTimer3Handling_flash_C_1
   \   0000000C   950A               DEC     R16
   \   0000000E   F049               BREQ    ??ATA_moduleTestTimer3Handling_flash_C_2
   \   00000010   5002               SUBI    R16, 2
   \   00000012   F049               BREQ    ??ATA_moduleTestTimer3Handling_flash_C_3
   \   00000014   950A               DEC     R16
   \   00000016   F039               BREQ    ??ATA_moduleTestTimer3Handling_flash_C_3
   \   00000018   950A               DEC     R16
   \   0000001A   F029               BREQ    ??ATA_moduleTestTimer3Handling_flash_C_3
   \   0000001C   C00B               RJMP    ??ATA_moduleTestTimer3Handling_flash_C_4
    771              {
    772                  /* Timer3 Initialization */
    773                  case ATA_TIMER_INIT:
    774                    ATA_timer3Init_C();
   \                     ??ATA_moduleTestTimer3Handling_flash_C_0:
   \   0000001E   ........           JMP     ATA_timer3Init_C
    775                    break;
    776          
    777                  /* Timer3 open in C code */
    778                  case ATA_TIMER_OPEN_C:
    779                    g_bTimerModuleReturnValue_flash = ATA_timer3Open_C(&g_sTimer16BitParams_flash);
    780                    break;
    781          
    782                  /* Timer3 close in C code */
    783                  case ATA_TIMER_CLOSE_C:
    784                    ATA_timer3Close_C();
   \                     ??ATA_moduleTestTimer3Handling_flash_C_2:
   \   00000022   ........           JMP     ATA_timer3Close_C
    785                    break;
    786          
    787                  /* Timer3 Compare Match Interrupt Handling */
    788                  case ATA_TIMER_COM_INTHANDLER_ASM:
    789                    ATA_timer3Init_C();
    790                    g_bTimerModuleReturnValue_flash = ATA_timer3Open_C(&g_sTimer16BitParams_flash);
    791                    break;
    792          
    793                  /* Timer3 Counter Overflow Interrupt Handling */
    794                  case ATA_TIMER_OVF_INTHANDLER_ASM:
    795                    ATA_timer3Init_C();
   \                     ??ATA_moduleTestTimer3Handling_flash_C_3:
   \   00000026   ........           CALL    ATA_timer3Init_C
    796                    g_bTimerModuleReturnValue_flash = ATA_timer3Open_C(&g_sTimer16BitParams_flash);
   \                     ??ATA_moduleTestTimer3Handling_flash_C_1:
   \   0000002A   ....               LDI     R16, LOW(g_sTimer16BitParams_flash)
   \   0000002C   ....               LDI     R17, (g_sTimer16BitParams_flash) >> 8
   \   0000002E   ........           CALL    ATA_timer3Open_C
   \   00000032   ....               RJMP    ?Subroutine0
    797                    break;
    798          
    799                  /* Timer3 Capture Interrupt Handling */
    800                  case ATA_TIMER_CAP_INTHANDLER_ASM:
    801                    ATA_timer3Init_C();
    802                    g_bTimerModuleReturnValue_flash = ATA_timer3Open_C(&g_sTimer16BitParams_flash);
    803                    break;
    804          
    805                  /* Wrong sub id loaded by test case. */
    806                  default:
    807                     _NOP;
   \                     ??ATA_moduleTestTimer3Handling_flash_C_4:
   \   00000034   0000               nop
    808              }
    809          }
   \   00000036   9508               RET
    810          
    811          /* Timer4 handling */

   \                                 In  segment CODE, align 2, keep-with-next, root
    812          VOIDFUNC ATA_moduleTestTimer4Handling_flash_C(void)
   \                     ATA_moduleTestTimer4Handling_flash_C:
    813          {
    814              switch (g_sModuleTest_flash.bSubId)
   \   00000000   9100....           LDS     R16, (g_sModuleTest_flash + 1)
   \   00000004   2300               TST     R16
   \   00000006   F059               BREQ    ??ATA_moduleTestTimer4Handling_flash_C_0
   \   00000008   950A               DEC     R16
   \   0000000A   F079               BREQ    ??ATA_moduleTestTimer4Handling_flash_C_1
   \   0000000C   950A               DEC     R16
   \   0000000E   F049               BREQ    ??ATA_moduleTestTimer4Handling_flash_C_2
   \   00000010   5002               SUBI    R16, 2
   \   00000012   F049               BREQ    ??ATA_moduleTestTimer4Handling_flash_C_3
   \   00000014   950A               DEC     R16
   \   00000016   F039               BREQ    ??ATA_moduleTestTimer4Handling_flash_C_3
   \   00000018   950A               DEC     R16
   \   0000001A   F029               BREQ    ??ATA_moduleTestTimer4Handling_flash_C_3
   \   0000001C   C00B               RJMP    ??ATA_moduleTestTimer4Handling_flash_C_4
    815              {
    816                  /* Timer4 Initialization */
    817                  case ATA_TIMER_INIT:
    818                    ATA_timer4Init_C();
   \                     ??ATA_moduleTestTimer4Handling_flash_C_0:
   \   0000001E   ........           JMP     ATA_timer4Init_C
    819                    break;
    820          
    821                  /* Timer4 open in C code */
    822                  case ATA_TIMER_OPEN_C:
    823                    g_bTimerModuleReturnValue_flash = ATA_timer4Open_C(&g_sTimer16BitParams_flash);
    824                    break;
    825          
    826                  /* Timer4 close in C code */
    827                  case ATA_TIMER_CLOSE_C:
    828                    ATA_timer4Close_C();
   \                     ??ATA_moduleTestTimer4Handling_flash_C_2:
   \   00000022   ........           JMP     ATA_timer4Close_C
    829                    break;
    830          
    831                  /* Timer4 Compare Match Interrupt Handling */
    832                  case ATA_TIMER_COM_INTHANDLER_ASM:
    833                    ATA_timer4Init_C();
    834                    g_bTimerModuleReturnValue_flash = ATA_timer4Open_C(&g_sTimer16BitParams_flash);
    835                    break;
    836          
    837                  /* Timer3 Counter Overflow Interrupt Handling */
    838                  case ATA_TIMER_OVF_INTHANDLER_ASM:
    839                    ATA_timer4Init_C();
   \                     ??ATA_moduleTestTimer4Handling_flash_C_3:
   \   00000026   ........           CALL    ATA_timer4Init_C
    840                    g_bTimerModuleReturnValue_flash = ATA_timer4Open_C(&g_sTimer16BitParams_flash);
   \                     ??ATA_moduleTestTimer4Handling_flash_C_1:
   \   0000002A   ....               LDI     R16, LOW(g_sTimer16BitParams_flash)
   \   0000002C   ....               LDI     R17, (g_sTimer16BitParams_flash) >> 8
   \   0000002E   ........           CALL    ATA_timer4Open_C
   \   00000032   ....               RJMP    ?Subroutine0
    841                    break;
    842          
    843                  /* Timer4 Capture Interrupt Handling */
    844                  case ATA_TIMER_CAP_INTHANDLER_ASM:
    845                    ATA_timer4Init_C();
    846                    g_bTimerModuleReturnValue_flash = ATA_timer4Open_C(&g_sTimer16BitParams_flash);
    847                    break;
    848          
    849                  /* Wrong sub id loaded by test case. */
    850                  default:
    851                     _NOP;
   \                     ??ATA_moduleTestTimer4Handling_flash_C_4:
   \   00000034   0000               nop
    852              }
    853          }
   \   00000036   9508               RET
    854          
    855          /* Timer5 handling */

   \                                 In  segment CODE, align 2, keep-with-next, root
    856          VOIDFUNC ATA_moduleTestTimer5Handling_flash_C(void)
   \                     ATA_moduleTestTimer5Handling_flash_C:
    857          {
    858              switch (g_sModuleTest_flash.bSubId)
   \   00000000   9100....           LDS     R16, (g_sModuleTest_flash + 1)
   \   00000004   2300               TST     R16
   \   00000006   F049               BREQ    ??ATA_moduleTestTimer5Handling_flash_C_0
   \   00000008   950A               DEC     R16
   \   0000000A   F069               BREQ    ??ATA_moduleTestTimer5Handling_flash_C_1
   \   0000000C   950A               DEC     R16
   \   0000000E   F039               BREQ    ??ATA_moduleTestTimer5Handling_flash_C_2
   \   00000010   5002               SUBI    R16, 2
   \   00000012   F039               BREQ    ??ATA_moduleTestTimer5Handling_flash_C_3
   \   00000014   950A               DEC     R16
   \   00000016   F029               BREQ    ??ATA_moduleTestTimer5Handling_flash_C_3
   \   00000018   C00B               RJMP    ??ATA_moduleTestTimer5Handling_flash_C_4
    859              {
    860                  /* Timer5 Initialization */
    861                  case ATA_TIMER_INIT:
    862                    ATA_timer5Init_C();
   \                     ??ATA_moduleTestTimer5Handling_flash_C_0:
   \   0000001A   ........           JMP     ATA_timer5Init_C
    863                    break;
    864          
    865                  /* Timer5 open in C code */
    866                  case ATA_TIMER_OPEN_C:
    867                    g_bTimerModuleReturnValue_flash = ATA_timer5Open_C(&g_sTimer16BitSynParams_flash);
    868                    break;
    869          
    870                  /* Timer5 close in C code */
    871                  case ATA_TIMER_CLOSE_C:
    872                    ATA_timer5Close_C();
   \                     ??ATA_moduleTestTimer5Handling_flash_C_2:
   \   0000001E   ........           JMP     ATA_timer5Close_C
    873                    break;
    874          
    875                  /* Timer5 Compare Match Interrupt Handling */
    876                  case ATA_TIMER_COM_INTHANDLER_ASM:
    877                    ATA_timer5Init_C();
    878                    g_bTimerModuleReturnValue_flash = ATA_timer5Open_C(&g_sTimer16BitSynParams_flash);
    879                    break;
    880          
    881                  /* Timer5 Counter Overflow Interrupt Handling */
    882                  case ATA_TIMER_OVF_INTHANDLER_ASM:
    883                    ATA_timer5Init_C();
   \                     ??ATA_moduleTestTimer5Handling_flash_C_3:
   \   00000022   ........           CALL    ATA_timer5Init_C
    884                    g_bTimerModuleReturnValue_flash = ATA_timer5Open_C(&g_sTimer16BitSynParams_flash);
   \                     ??ATA_moduleTestTimer5Handling_flash_C_1:
   \   00000026   ....               LDI     R16, LOW(g_sTimer16BitSynParams_flash)
   \   00000028   ....               LDI     R17, (g_sTimer16BitSynParams_flash) >> 8
   \   0000002A   ........           CALL    ATA_timer5Open_C
   \   0000002E   ....               RJMP    ?Subroutine0
    885                    break;
    886          
    887                  /* Wrong sub id loaded by test case. */
    888                  default:
    889                     _NOP;
   \                     ??ATA_moduleTestTimer5Handling_flash_C_4:
   \   00000030   0000               nop
    890              }
    891          }
   \   00000032   9508               RET
    892          
    893          /* Timer Multiple Opening */

   \                                 In  segment CODE, align 2, keep-with-next, root
    894          VOIDFUNC ATA_moduleTestTimerMultipleOpen_flash_C(void)
   \                     ATA_moduleTestTimerMultipleOpen_flash_C:
    895          {
    896              switch (g_sModuleTest_flash.bSubId)
   \   00000000   9100....           LDS     R16, (g_sModuleTest_flash + 1)
   \   00000004   2300               TST     R16
   \   00000006   F059               BREQ    ??ATA_moduleTestTimerMultipleOpen_flash_C_0
   \   00000008   5007               SUBI    R16, 7
   \   0000000A   F051               BREQ    ??ATA_moduleTestTimerMultipleOpen_flash_C_1
   \   0000000C   950A               DEC     R16
   \   0000000E   F069               BREQ    ??ATA_moduleTestTimerMultipleOpen_flash_C_2
   \   00000010   950A               DEC     R16
   \   00000012   F081               BREQ    ??ATA_moduleTestTimerMultipleOpen_flash_C_3
   \   00000014   950A               DEC     R16
   \   00000016   F099               BREQ    ??ATA_moduleTestTimerMultipleOpen_flash_C_4
   \   00000018   950A               DEC     R16
   \   0000001A   F0B1               BREQ    ??ATA_moduleTestTimerMultipleOpen_flash_C_5
   \   0000001C   C01A               RJMP    ??ATA_moduleTestTimerMultipleOpen_flash_C_6
    897              {
    898                  /* Timer1 Initialization */
    899                  case ATA_TIMER_INIT:
    900                    ATA_timer1Init_C();
   \                     ??ATA_moduleTestTimerMultipleOpen_flash_C_0:
   \   0000001E   ....               RJMP    ?Subroutine1
    901                    break;
    902          
    903                  /* Timer 1 open in C code */
    904                  case ATA_TIMER_1_OPEN_FAIL_C:
    905                    g_bTimerModuleReturnValue_flash = ATA_timer1Open_C(&g_sTimer8BitParams_flash);
   \                     ??ATA_moduleTestTimerMultipleOpen_flash_C_1:
   \   00000020   ....               LDI     R16, LOW(g_sTimer8BitParams_flash)
   \   00000022   ....               LDI     R17, (g_sTimer8BitParams_flash) >> 8
   \   00000024   ........           CALL    ATA_timer1Open_C
   \   00000028   C004               RJMP    ??ATA_moduleTestTimerMultipleOpen_flash_C_7
    906                    break;
    907          
    908                  /* Timer 2 open in C code */
    909                  case ATA_TIMER_2_OPEN_FAIL_C:
    910                    g_bTimerModuleReturnValue_flash = ATA_timer2Open_C(&g_sTimer8BitParams_flash);
   \                     ??ATA_moduleTestTimerMultipleOpen_flash_C_2:
   \   0000002A   ....               LDI     R16, LOW(g_sTimer8BitParams_flash)
   \   0000002C   ....               LDI     R17, (g_sTimer8BitParams_flash) >> 8
   \   0000002E   ........           CALL    ATA_timer2Open_C
   \                     ??ATA_moduleTestTimerMultipleOpen_flash_C_7:
   \   00000032   ....               RJMP    ?Subroutine0
    911                    break;
    912          
    913                  /* Timer 3 open in C code */
    914                  case ATA_TIMER_3_OPEN_FAIL_C:
    915                    g_bTimerModuleReturnValue_flash = ATA_timer3Open_C(&g_sTimer16BitParams_flash);
   \                     ??ATA_moduleTestTimerMultipleOpen_flash_C_3:
   \   00000034   ....               LDI     R16, LOW(g_sTimer16BitParams_flash)
   \   00000036   ....               LDI     R17, (g_sTimer16BitParams_flash) >> 8
   \   00000038   ........           CALL    ATA_timer3Open_C
   \   0000003C   CFFA               RJMP    ??ATA_moduleTestTimerMultipleOpen_flash_C_7
    916                    break;
    917          
    918                  /* Timer 4 open in C code */
    919                  case ATA_TIMER_4_OPEN_FAIL_C:
    920                    g_bTimerModuleReturnValue_flash = ATA_timer4Open_C(&g_sTimer16BitParams_flash);
   \                     ??ATA_moduleTestTimerMultipleOpen_flash_C_4:
   \   0000003E   ....               LDI     R16, LOW(g_sTimer16BitParams_flash)
   \   00000040   ....               LDI     R17, (g_sTimer16BitParams_flash) >> 8
   \   00000042   ........           CALL    ATA_timer4Open_C
   \   00000046   CFF5               RJMP    ??ATA_moduleTestTimerMultipleOpen_flash_C_7
    921                    break;
    922          
    923                  /* Timer 5 open in C code */
    924                  case ATA_TIMER_5_OPEN_FAIL_C:
    925                    g_bTimerModuleReturnValue_flash = ATA_timer5Open_C(&g_sTimer16BitSynParams_flash);
   \                     ??ATA_moduleTestTimerMultipleOpen_flash_C_5:
   \   00000048   ....               LDI     R16, LOW(g_sTimer16BitSynParams_flash)
   \   0000004A   ....               LDI     R17, (g_sTimer16BitSynParams_flash) >> 8
   \   0000004C   ........           CALL    ATA_timer5Open_C
   \   00000050   CFF0               RJMP    ??ATA_moduleTestTimerMultipleOpen_flash_C_7
    926                    break;
    927          
    928                  /* Wrong sub id loaded by test case. */
    929                  default:
    930                     _NOP;
   \                     ??ATA_moduleTestTimerMultipleOpen_flash_C_6:
   \   00000052   0000               nop
    931              }
    932          }
   \   00000054   9508               RET
    933          
    934          /* Clock MRC_FRC Handling */

   \                                 In  segment CODE, align 2, keep-with-next, root
    935          VOIDFUNC ATA_moduleTestClkMrcFrcHandling_flash_C(void)  /* Primus2P - 1565 */
   \                     ATA_moduleTestClkMrcFrcHandling_flash_C:
    936          {
    937              switch (g_sModuleTest_flash.bSubId)
   \   00000000   9100....           LDS     R16, (g_sModuleTest_flash + 1)
   \   00000004   2300               TST     R16
   \   00000006   F059               BREQ    ??ATA_moduleTestClkMrcFrcHandling_flash_C_0
   \   00000008   950A               DEC     R16
   \   0000000A   F051               BREQ    ??ATA_moduleTestClkMrcFrcHandling_flash_C_1
   \   0000000C   5003               SUBI    R16, 3
   \   0000000E   F049               BREQ    ??ATA_moduleTestClkMrcFrcHandling_flash_C_2
   \   00000010   950A               DEC     R16
   \   00000012   F049               BREQ    ??ATA_moduleTestClkMrcFrcHandling_flash_C_3
   \   00000014   950A               DEC     R16
   \   00000016   F061               BREQ    ??ATA_moduleTestClkMrcFrcHandling_flash_C_4
   \   00000018   950A               DEC     R16
   \   0000001A   F061               BREQ    ??ATA_moduleTestClkMrcFrcHandling_flash_C_5
   \   0000001C   C00F               RJMP    ??ATA_moduleTestClkMrcFrcHandling_flash_C_6
    938              {
    939                  /* Switch clock MRC on */
    940                  case ATA_CLOCK_MRC_ON:
    941                    ATA_globalsClkSwitchMrc_C();
   \                     ??ATA_moduleTestClkMrcFrcHandling_flash_C_0:
   \   0000001E   ....               RJMP    ?Subroutine3
    942                    break;
    943          
    944                  /* Switch clock FRC on */
    945                  case ATA_CLOCK_FRC_ON:
    946                    ATA_globalsClkSwitchFrc_C();
   \                     ??ATA_moduleTestClkMrcFrcHandling_flash_C_1:
   \   00000020   ....               RJMP    ?Subroutine2
    947                    break;
    948          
    949                  /* Switch clock SRC on */
    950                  case ATA_CLOCK_SRC_ON:
    951                    ATA_globalsClkSwitchSrc_C();
   \                     ??ATA_moduleTestClkMrcFrcHandling_flash_C_2:
   \   00000022   ........           JMP     ATA_globalsClkSwitchSrc_C
    952                    break;
    953          
    954                  /* Switch clock XTO on */
    955                  case ATA_CLOCK_XTO_ON:
    956                    ATA_globalsActivateXTO_C();
   \                     ??ATA_moduleTestClkMrcFrcHandling_flash_C_3:
   \   00000026   ........           CALL    ATA_globalsActivateXTO_C
    957                    ATA_globalsClkSwitchXTO_C(0x07U);
   \   0000002A   E007               LDI     R16, 7
   \   0000002C   ........           JMP     ATA_globalsClkSwitchXTO_C
    958                    break;
    959          
    960                  /* XTO off (XTO must not be set as system clock */
    961                  case ATA_CLOCK_XTO_OFF:
    962                    ATA_globalsDeActivateXTO_C();
   \                     ??ATA_moduleTestClkMrcFrcHandling_flash_C_4:
   \   00000030   ........           JMP     ATA_globalsDeActivateXTO_C
    963                    break;
    964          
    965                  // --P2P-3750--
    966                  /* Switch clock FRC with Delay on */
    967                  case ATA_CLOCK_FRC_DELAY_ON:
    968                      ATA_globalsClkSwitchFrcWithDelay_C(g_bModuleTestBuffer_flash[0]);
   \                     ??ATA_moduleTestClkMrcFrcHandling_flash_C_5:
   \   00000034   9100....           LDS     R16, g_bModuleTestBuffer_flash
   \   00000038   ........           JMP     ATA_globalsClkSwitchFrcWithDelay_C
    969                      break;
    970                  // --P2P-3750--
    971          
    972                  /* Wrong sub id loaded by test case. */
    973                  default:
    974                     _NOP;
   \                     ??ATA_moduleTestClkMrcFrcHandling_flash_C_6:
   \   0000003C   0000               nop
    975              }
    976          }
   \   0000003E   9508               RET

   \                                 In  segment CODE, align 2, keep-with-next
   \                     ?Subroutine3:
   \   00000000   ........           JMP     ATA_globalsClkSwitchMrc_C

   \                                 In  segment CODE, align 2, keep-with-next
   \                     ?Subroutine2:
   \   00000000   ........           JMP     ATA_globalsClkSwitchFrc_C
    977          
    978          
    979          /* External Clock Handling */

   \                                 In  segment CODE, align 2, keep-with-next, root
    980          VOIDFUNC ATA_moduleTestClkExtClockHandling_flash_C(void)
   \                     ATA_moduleTestClkExtClockHandling_flash_C:
    981          {
    982              switch (g_sModuleTest_flash.bSubId)
   \   00000000   9100....           LDS     R16, (g_sModuleTest_flash + 1)
   \   00000004   2300               TST     R16
   \   00000006   F039               BREQ    ??ATA_moduleTestClkExtClockHandling_flash_C_0
   \   00000008   950A               DEC     R16
   \   0000000A   F031               BREQ    ??ATA_moduleTestClkExtClockHandling_flash_C_1
   \   0000000C   950A               DEC     R16
   \   0000000E   F029               BREQ    ??ATA_moduleTestClkExtClockHandling_flash_C_2
   \   00000010   950A               DEC     R16
   \   00000012   F029               BREQ    ??ATA_moduleTestClkExtClockHandling_flash_C_3
   \   00000014   C007               RJMP    ??ATA_moduleTestClkExtClockHandling_flash_C_4
    983              {
    984                  /* Switch clock MRC on */
    985                  case ATA_CLOCK_MRC_ON:
    986                    ATA_globalsClkSwitchMrc_C();
   \                     ??ATA_moduleTestClkExtClockHandling_flash_C_0:
   \   00000016   ....               RJMP    ?Subroutine3
    987                    break;
    988          
    989                  /* Switch clock FRC on */
    990                  case ATA_CLOCK_FRC_ON:
    991                    ATA_globalsClkSwitchFrc_C();
   \                     ??ATA_moduleTestClkExtClockHandling_flash_C_1:
   \   00000018   ....               RJMP    ?Subroutine2
    992                    break;
    993          
    994                  /* Select external clock greater than 1 MHZ as system clock */
    995                  case ATA_CLOCK_EXT_HIGH:
    996                    ATA_globalsClkSwitchExt_C(TRUE);
   \                     ??ATA_moduleTestClkExtClockHandling_flash_C_2:
   \   0000001A   E001               LDI     R16, 1
   \   0000001C   C001               RJMP    ??ATA_moduleTestClkExtClockHandling_flash_C_5
    997                    break;
    998          
    999                  /* Select external clock smaller than 1 MHZ as system clock */
   1000                  case ATA_CLOCK_EXT_LOW:
   1001                    ATA_globalsClkSwitchExt_C(FALSE);
   \                     ??ATA_moduleTestClkExtClockHandling_flash_C_3:
   \   0000001E   E000               LDI     R16, 0
   \                     ??ATA_moduleTestClkExtClockHandling_flash_C_5:
   \   00000020   ........           JMP     ATA_globalsClkSwitchExt_C
   1002                    break;
   1003          
   1004                  /* Wrong sub id loaded by test case. */
   1005                  default:
   1006                     _NOP;
   \                     ??ATA_moduleTestClkExtClockHandling_flash_C_4:
   \   00000024   0000               nop
   1007              }
   1008          }
   \   00000026   9508               RET
   1009          
   1010          

   \                                 In  segment CODE, align 2, keep-with-next, root
   1011          VOIDFUNC ATA_moduleTestRfrcc_flash_C(void)
   \                     ATA_moduleTestRfrcc_flash_C:
   1012          {
   1013            switch (g_sModuleTest_flash.bSubId)
   \   00000000   9100....           LDS     R16, (g_sModuleTest_flash + 1)
   \   00000004   2300               TST     R16
   \   00000006   F439               BRNE    ??ATA_moduleTestRfrcc_flash_C_0
   1014            {
   1015              case ATA_RFRCC_TRANSMIT_RCC:
   1016                ATA_rfrccGenRollCntMsg_C(0x0000U, AES_USE_SECRET_KEY_A, ATA_RFRCC_USER_CMND, 0x00U);
   \   00000008   E040               LDI     R20, 0
   \   0000000A   E434               LDI     R19, 68
   \   0000000C   E020               LDI     R18, 0
   \   0000000E   E000               LDI     R16, 0
   \   00000010   E010               LDI     R17, 0
   \   00000012   ........           JMP     ATA_rfrccGenRollCntMsg_C
   1017              break;
   1018          
   1019             default:
   1020               _NOP;
   \                     ??ATA_moduleTestRfrcc_flash_C_0:
   \   00000016   0000               nop
   1021            }
   1022          }
   \   00000018   9508               RET
   1023          /* LF RSSI measurement Handling */

   \                                 In  segment CODE, align 2, keep-with-next, root
   1024          VOIDFUNC ATA_moduleTestLfRssiHandling_flash_C(void)
   \                     ATA_moduleTestLfRssiHandling_flash_C:
   1025          {
   \   00000000   972D               SBIW    R29:R28, 13
   1026              uint8_t tmpBuf[13];
   1027              switch (g_sModuleTest_flash.bSubId)
   \   00000002   9100....           LDS     R16, (g_sModuleTest_flash + 1)
   \   00000006   ....               LDI     R30, LOW(`?<Jumptable for ATA_moduleTestLfRssiHandling_f_0`)
   \   00000008   ....               LDI     R31, (`?<Jumptable for ATA_moduleTestLfRssiHandling_f_0`) >> 8
   \   0000000A   ........           JMP     ?CV_SWITCH_L06
   1028              {
   1029                  /* Power-up the LF RSSI block */
   1030                  case ATA_LFRSSI_OPEN:
   1031                      // insert controlled SRC calibration by software
   1032                      //if(g_sModuleTestLfRssi_flash.srcCal)
   1033                      {
   1034                      //ATA_calibInit_C();
   1035                      //srccalib();
   1036                      }
   1037                      ATA_lfRssiOpen_C();
   \                     ??ATA_moduleTestLfRssiHandling_flash_C_0:
   \   0000000E   ........           CALL    ATA_lfRssiOpen_C
   1038                      break;
   \   00000012   C084               RJMP    ??ATA_moduleTestLfRssiHandling_flash_C_1
   1039                  /* Initialize the working RSSI registers */
   1040                  case ATA_LFRSSI_SET_CONFIG:
   1041                      ATA_lfRssiInit_C();
   \                     ??ATA_moduleTestLfRssiHandling_flash_C_2:
   \   00000014   ........           CALL    ATA_lfRssiInit_C
   1042                      ATA_eepReadBytes_C( &tmpBuf[0], (uint16_t)&g_bEepFlashAppLfRssiSrcCalibrationSetting_flash, 1U );
   \   00000018   E041               LDI     R20, 1
   \   0000001A   ....               LDI     R18, LOW(g_bEepFlashAppLfRssiSrcCalibrationSetting_flash)
   \   0000001C   ....               LDI     R19, (g_bEepFlashAppLfRssiSrcCalibrationSetting_flash) >> 8
   \   0000001E   018E               MOVW    R17:R16, R29:R28
   \   00000020   ........           CALL    ATA_eepReadBytes_C
   1043                      ATA_lfRssiSetEepromConfig_C(tmpBuf[0]);
   \   00000024   8108               LD      R16, Y
   \   00000026   ........           CALL    ATA_lfRssiSetEepromConfig_C
   1044                      break;
   \   0000002A   C078               RJMP    ??ATA_moduleTestLfRssiHandling_flash_C_1
   1045                  /* Start internal RSSI measurement */
   1046                  case ATA_LFRSSI_START_INTERN:
   1047                      g_sLfRssi.bOutOfRangeMask = 0xFF;
   \                     ??ATA_moduleTestLfRssiHandling_flash_C_3:
   \   0000002C   EF0F               LDI     R16, 255
   \   0000002E   9300....           STS     (g_sLfRssi + 12), R16
   1048                      ATA_lfRssiMeasStart_C(&g_sModuleTestLfRssiRegs_flash, 1, g_sModuleTestLfRssi_flash.signEna);
   \   00000032   9130....           LDS     R19, (g_sModuleTestLfRssi_flash + 4)
   \   00000036   E021               LDI     R18, 1
   \   00000038   ....               LDI     R16, LOW(g_sModuleTestLfRssiRegs_flash)
   \   0000003A   ....               LDI     R17, (g_sModuleTestLfRssiRegs_flash) >> 8
   \   0000003C   ........           CALL    ATA_lfRssiMeasStart_C
   1049                      g_sModuleTestLfRssi_flash.pData = (uint8_t *)&g_wLfRssiResultIntMeas[0];
   \   00000040   ....               LDI     R16, LOW(g_wLfRssiResultIntMeas)
   \   00000042   ....               LDI     R17, (g_wLfRssiResultIntMeas) >> 8
   \   00000044   C00C               RJMP    ??ATA_moduleTestLfRssiHandling_flash_C_4
   1050                      break;
   1051                  /* Start external RSSI measurement */
   1052                  case ATA_LFRSSI_START_EXTERN:
   1053                      g_sLfRssi.bOutOfRangeMask = 0xFF;
   \                     ??ATA_moduleTestLfRssiHandling_flash_C_5:
   \   00000046   EF0F               LDI     R16, 255
   \   00000048   9300....           STS     (g_sLfRssi + 12), R16
   1054                      ATA_lfRssiMeasStart_C(&g_sModuleTestLfRssiRegs_flash, 0, g_sModuleTestLfRssi_flash.signEna);
   \   0000004C   9130....           LDS     R19, (g_sModuleTestLfRssi_flash + 4)
   \   00000050   E020               LDI     R18, 0
   \   00000052   ....               LDI     R16, LOW(g_sModuleTestLfRssiRegs_flash)
   \   00000054   ....               LDI     R17, (g_sModuleTestLfRssiRegs_flash) >> 8
   \   00000056   ........           CALL    ATA_lfRssiMeasStart_C
   1055                      g_sModuleTestLfRssi_flash.pData = (uint8_t *)&g_sModuleTestLfRssiResult_flash.rawRssi[0];
   \   0000005A   ....               LDI     R16, LOW(g_sModuleTestLfRssiResult_flash)
   \   0000005C   ....               LDI     R17, (g_sModuleTestLfRssiResult_flash) >> 8
   \                     ??ATA_moduleTestLfRssiHandling_flash_C_4:
   \   0000005E   9300....           STS     (g_sModuleTestLfRssi_flash + 5), R16
   \   00000062   9310....           STS     (g_sModuleTestLfRssi_flash + 6), R17
   1056                      break;
   \   00000066   C05A               RJMP    ??ATA_moduleTestLfRssiHandling_flash_C_1
   1057                  /* Stop the RSSI measurement */
   1058                  case ATA_LFRSSI_STOP:
   1059                      ATA_lfRssiMeasStop_C();
   \                     ??ATA_moduleTestLfRssiHandling_flash_C_6:
   \   00000068   ........           CALL    ATA_lfRssiMeasStop_C
   1060                      break;
   \   0000006C   C057               RJMP    ??ATA_moduleTestLfRssiHandling_flash_C_1
   1061                  /* Power-down the LF RSSI block */
   1062                  case ATA_LFRSSI_CLOSE:
   1063                      ATA_lfRssiClose_C();
   \                     ??ATA_moduleTestLfRssiHandling_flash_C_7:
   \   0000006E   ........           CALL    ATA_lfRssiClose_C
   1064                      break;
   \   00000072   C054               RJMP    ??ATA_moduleTestLfRssiHandling_flash_C_1
   1065                  /* Get the results of measurement */
   1066                  case ATA_LFRSSI_GET_RESULT_AVG:
   1067                      //g_sModuleTestLfRssiResult_flash.flags[0] = 0x00;    // mark result structure as invalid, to be discussed if necessary
   1068                      if( g_sModuleTestLfRssi_flash.signEna )
   \                     ??ATA_moduleTestLfRssiHandling_flash_C_8:
   \   00000074   9100....           LDS     R16, (g_sModuleTestLfRssi_flash + 4)
   \   00000078   2300               TST     R16
   \   0000007A   F019               BREQ    ??ATA_moduleTestLfRssiHandling_flash_C_9
   1069                      {
   1070                          ATA_lfRssiGetAverageResult_C(g_sModuleTestLfRssi_flash.pData, &g_sModuleTestLfRssiResult_flash.numPulses[0]);
   \   0000007C   ....               LDI     R18, LOW((g_sModuleTestLfRssiResult_flash + 8))
   \   0000007E   ....               LDI     R19, HIGH((g_sModuleTestLfRssiResult_flash + 8))
   \   00000080   C002               RJMP    ??ATA_moduleTestLfRssiHandling_flash_C_10
   1071                      }
   1072                      else
   1073                      {
   1074                          ATA_lfRssiGetAverageResult_C(g_sModuleTestLfRssi_flash.pData, (uint8_t *)0);
   \                     ??ATA_moduleTestLfRssiHandling_flash_C_9:
   \   00000082   E020               LDI     R18, 0
   \   00000084   E030               LDI     R19, 0
   \                     ??ATA_moduleTestLfRssiHandling_flash_C_10:
   \   00000086   9100....           LDS     R16, (g_sModuleTestLfRssi_flash + 5)
   \   0000008A   9110....           LDS     R17, (g_sModuleTestLfRssi_flash + 6)
   \   0000008E   ........           CALL    ATA_lfRssiGetAverageResult_C
   \   00000092   C044               RJMP    ??ATA_moduleTestLfRssiHandling_flash_C_1
   1075                      }
   1076                      break;
   1077                  /* Get the results of measurement */
   1078                  case ATA_LFRSSI_GET_RESULT_SAMPLE:
   1079                      ATA_lfRssiGetSamplesResult_C((uint8_t *)&g_wLfRssiSamplesResult[0], g_sModuleTestLfRssi_flash.numSamp, g_sModuleTestLfRssi_flash.startIdx);
   \                     ??ATA_moduleTestLfRssiHandling_flash_C_11:
   \   00000094   9130....           LDS     R19, (g_sModuleTestLfRssi_flash + 2)
   \   00000098   9120....           LDS     R18, (g_sModuleTestLfRssi_flash + 1)
   \   0000009C   ....               LDI     R16, LOW(g_wLfRssiSamplesResult)
   \   0000009E   ....               LDI     R17, (g_wLfRssiSamplesResult) >> 8
   \   000000A0   ........           CALL    ATA_lfRssiGetSamplesResult_C
   1080                      break;
   \   000000A4   C03B               RJMP    ??ATA_moduleTestLfRssiHandling_flash_C_1
   1081                  /* Correct average RSSI channel values */
   1082                  case ATA_LFRSSI_CORRCALC_AVG:
   1083                      ATA_lfRssiCalcChanCorr_C((uint8_t *)&g_sModuleTestLfRssiResult_flash.rawRssi[0], (uint8_t *)&g_wLfRssiResultIntMeas[0], (uint8_t *)&g_sModuleTestLfRssiResult_flash.corrRssi[0]);
   \                     ??ATA_moduleTestLfRssiHandling_flash_C_12:
   \   000000A6   ....               LDI     R20, LOW((g_sModuleTestLfRssiResult_flash + 12))
   \   000000A8   ....               LDI     R21, HIGH((g_sModuleTestLfRssiResult_flash + 12))
   \   000000AA   ....               LDI     R18, LOW(g_wLfRssiResultIntMeas)
   \   000000AC   ....               LDI     R19, (g_wLfRssiResultIntMeas) >> 8
   \   000000AE   ....               LDI     R16, LOW(g_sModuleTestLfRssiResult_flash)
   \   000000B0   ....               LDI     R17, (g_sModuleTestLfRssiResult_flash) >> 8
   \   000000B2   C006               RJMP    ??ATA_moduleTestLfRssiHandling_flash_C_13
   1084                      break;
   1085                  /* Correct sample RSSI channel values */
   1086                  case ATA_LFRSSI_CORRCALC_SAMPLE:
   1087                      ATA_lfRssiCalcChanCorr_C((uint8_t *)&g_wLfRssiSamplesResult[0], (uint8_t *)&g_wLfRssiResultIntMeas[0], (uint8_t *)&g_wLfRssiSamplesResultCorrCalc[0]);
   \                     ??ATA_moduleTestLfRssiHandling_flash_C_14:
   \   000000B4   ....               LDI     R20, LOW(g_wLfRssiSamplesResultCorrCalc)
   \   000000B6   ....               LDI     R21, (g_wLfRssiSamplesResultCorrCalc) >> 8
   \   000000B8   ....               LDI     R18, LOW(g_wLfRssiResultIntMeas)
   \   000000BA   ....               LDI     R19, (g_wLfRssiResultIntMeas) >> 8
   \   000000BC   ....               LDI     R16, LOW(g_wLfRssiSamplesResult)
   \   000000BE   ....               LDI     R17, (g_wLfRssiSamplesResult) >> 8
   \                     ??ATA_moduleTestLfRssiHandling_flash_C_13:
   \   000000C0   ........           CALL    ATA_lfRssiCalcChanCorr_C
   1088                      break;
   \   000000C4   C02B               RJMP    ??ATA_moduleTestLfRssiHandling_flash_C_1
   1089                  /* Calculate the (logarithmic) 3D vector based on RSSI average values */
   1090                  case ATA_LFRSSI_3DVEC_AVG:
   1091                      ATA_lfRssiCalc3dVec_C((uint8_t *)&g_sModuleTestLfRssiResult_flash.corrRssi[0], (uint8_t *)&g_sModuleTestLfRssiResult_flash.logResult);
   \                     ??ATA_moduleTestLfRssiHandling_flash_C_15:
   \   000000C6   ....               LDI     R18, LOW((g_sModuleTestLfRssiResult_flash + 18))
   \   000000C8   ....               LDI     R19, HIGH((g_sModuleTestLfRssiResult_flash + 18))
   \   000000CA   ....               LDI     R16, LOW((g_sModuleTestLfRssiResult_flash + 12))
   \   000000CC   ....               LDI     R17, HIGH((g_sModuleTestLfRssiResult_flash + 12))
   \   000000CE   C004               RJMP    ??ATA_moduleTestLfRssiHandling_flash_C_16
   1092                      break;
   1093                  /* Calculate the (logarithmic) 3D vector based on RSSI sample values */
   1094                  case ATA_LFRSSI_3DVEC_SAMPLE:
   1095                      ATA_lfRssiCalc3dVec_C((uint8_t *)&g_wLfRssiSamplesResultCorrCalc[0], (uint8_t *)&g_wLfRssiSamplesResult3dVec[0]);
   \                     ??ATA_moduleTestLfRssiHandling_flash_C_17:
   \   000000D0   ....               LDI     R18, LOW(g_wLfRssiSamplesResult3dVec)
   \   000000D2   ....               LDI     R19, (g_wLfRssiSamplesResult3dVec) >> 8
   \   000000D4   ....               LDI     R16, LOW(g_wLfRssiSamplesResultCorrCalc)
   \   000000D6   ....               LDI     R17, (g_wLfRssiSamplesResultCorrCalc) >> 8
   \                     ??ATA_moduleTestLfRssiHandling_flash_C_16:
   \   000000D8   ........           CALL    ATA_lfRssiCalc3dVec_C
   1096                      break;
   \   000000DC   C01F               RJMP    ??ATA_moduleTestLfRssiHandling_flash_C_1
   1097                  /* Convert average value based logarithmic RSSI 3D vector to corresponding induced voltage value */
   1098                  case ATA_LFRSSI_LOG2LIN_AVG:
   1099                      ATA_lfRssiCalcLog2Lin_C((uint8_t *)&g_sModuleTestLfRssiResult_flash.logResult, (uint8_t *)&g_sModuleTestLfRssiResult_flash.linResult);
   \                     ??ATA_moduleTestLfRssiHandling_flash_C_18:
   \   000000DE   ....               LDI     R18, LOW((g_sModuleTestLfRssiResult_flash + 20))
   \   000000E0   ....               LDI     R19, HIGH((g_sModuleTestLfRssiResult_flash + 20))
   \   000000E2   ....               LDI     R16, LOW((g_sModuleTestLfRssiResult_flash + 18))
   \   000000E4   ....               LDI     R17, HIGH((g_sModuleTestLfRssiResult_flash + 18))
   \   000000E6   C004               RJMP    ??ATA_moduleTestLfRssiHandling_flash_C_19
   1100                      break;
   1101                  /* Convert sample value based logarithmic RSSI 3D vector to corresponding induced voltage value */
   1102                  case ATA_LFRSSI_LOG2LIN_SAMPLE:
   1103                      ATA_lfRssiCalcLog2Lin_C((uint8_t *)&g_wLfRssiSamplesResult3dVec[0], (uint8_t *)&g_wLfRssiSamplesResultLin[0]);
   \                     ??ATA_moduleTestLfRssiHandling_flash_C_20:
   \   000000E8   ....               LDI     R18, LOW(g_wLfRssiSamplesResultLin)
   \   000000EA   ....               LDI     R19, (g_wLfRssiSamplesResultLin) >> 8
   \   000000EC   ....               LDI     R16, LOW(g_wLfRssiSamplesResult3dVec)
   \   000000EE   ....               LDI     R17, (g_wLfRssiSamplesResult3dVec) >> 8
   \                     ??ATA_moduleTestLfRssiHandling_flash_C_19:
   \   000000F0   ........           CALL    ATA_lfRssiCalcLog2Lin_C
   1104                      break;
   \   000000F4   C013               RJMP    ??ATA_moduleTestLfRssiHandling_flash_C_1
   1105                  /* Calculate the channel calibration values, needed for channel correction calculation */
   1106                  case ATA_LFRSSI_CALC_CALIBVAL:
   1107                      ATA_eepReadBytes_C( &tmpBuf[0], (uint16_t)&g_sEepFlashAppLfRssiEndOfLineCalibrationSettings_flash, 13U );
   \                     ??ATA_moduleTestLfRssiHandling_flash_C_21:
   \   000000F6   E04D               LDI     R20, 13
   \   000000F8   ....               LDI     R18, LOW(g_sEepFlashAppLfRssiEndOfLineCalibrationSettings_flash)
   \   000000FA   ....               LDI     R19, (g_sEepFlashAppLfRssiEndOfLineCalibrationSettings_flash) >> 8
   \   000000FC   018E               MOVW    R17:R16, R29:R28
   \   000000FE   ........           CALL    ATA_eepReadBytes_C
   1108                      ATA_lfRssiCalcChanCalibVal_C( tmpBuf[0], (uint16_t*)&tmpBuf[1], (uint16_t*)&tmpBuf[7] );
   \   00000102   01AE               MOVW    R21:R20, R29:R28
   \   00000104   5F49               SUBI    R20, 249
   \   00000106   4F5F               SBCI    R21, 255
   \   00000108   019E               MOVW    R19:R18, R29:R28
   \   0000010A   5F2F               SUBI    R18, 255
   \   0000010C   4F3F               SBCI    R19, 255
   \   0000010E   8108               LD      R16, Y
   \   00000110   ........           CALL    ATA_lfRssiCalcChanCalibVal_C
   1109                      break;
   \   00000114   C003               RJMP    ??ATA_moduleTestLfRssiHandling_flash_C_1
   1110                  case ATA_LFRSSI_12Q4:
   1111                      ATA_moduleTestLfRssiCalc12q4_flash_C();
   \                     ??ATA_moduleTestLfRssiHandling_flash_C_22:
   \   00000116   ....               RCALL   ATA_moduleTestLfRssiCalc12q4_flash_C
   1112                      break;
   \   00000118   C001               RJMP    ??ATA_moduleTestLfRssiHandling_flash_C_1
   1113                  /* Wrong sub id loaded by test case. */
   1114                  default:
   1115                      _NOP;
   \                     ??ATA_moduleTestLfRssiHandling_flash_C_23:
   \   0000011A   0000               nop
   1116              }
   1117          }
   \                     ??ATA_moduleTestLfRssiHandling_flash_C_1:
   \   0000011C   962D               ADIW    R29:R28, 13
   \   0000011E   9508               RET
   1118          
   1119          /**/

   \                                 In  segment CODE, align 2, keep-with-next, root
   1120          VOIDFUNC ATA_moduleTestLfTx_flash_C(void)
   \                     ATA_moduleTestLfTx_flash_C:
   1121          {
   1122              /* Only call function ATA_lfRxInit_C. It does not matter that the LF
   1123                 registers are already locked via register LFCPR. */
   1124              switch (g_sModuleTest_flash.bSubId)
   \   00000000   9100....           LDS     R16, (g_sModuleTest_flash + 1)
   \   00000004   3001               CPI     R16, 1
   \   00000006   F411               BRNE    ??ATA_moduleTestLfTx_flash_C_0
   1125              {
   1126              case MODULE_TEST_LFTX_SUBID_INIT:
   1127                ATA_lfRxInit_C();
   \   00000008   ........           CALL    ATA_lfRxInit_C
   1128                break;
   1129          
   1130              default:
   1131                break;
   1132              }
   1133          
   1134          }
   \                     ??ATA_moduleTestLfTx_flash_C_0:
   \   0000000C   9508               RET
   1135          
   1136          /** \brief <b>ATA_moduleTestLfRssiCalc12q4_flash_C</b>
   1137              module for multiplication of 2 variables in Atmels 12q4 floating point
   1138              format
   1139           */

   \                                 In  segment CODE, align 2, keep-with-next, root
   1140          VOIDFUNC ATA_moduleTestLfRssiCalc12q4_flash_C(void)
   \                     ATA_moduleTestLfRssiCalc12q4_flash_C:
   1141          {
   1142              uint16_t wBref           = *(uint16_t *)(g_bModuleTestBuffer_flash + 0);
   1143              uint16_t wRssiValue      = *(uint16_t *)(g_bModuleTestBuffer_flash + 2);
   1144          
   1145              uint16_t wResult = ATA_lfRssiCalcBappl_C(wBref, wRssiValue);
   1146              *(uint16_t *)(g_bModuleTestBuffer_flash + 4)  = wResult;
   \   00000000   9120....           LDS     R18, (g_bModuleTestBuffer_flash + 2)
   \   00000004   9130....           LDS     R19, (g_bModuleTestBuffer_flash + 3)
   \   00000008   9100....           LDS     R16, g_bModuleTestBuffer_flash
   \   0000000C   9110....           LDS     R17, (g_bModuleTestBuffer_flash + 1)
   \   00000010   ........           CALL    ATA_lfRssiCalcBappl_C
   \   00000014   9300....           STS     (g_bModuleTestBuffer_flash + 4), R16
   \   00000018   9310....           STS     (g_bModuleTestBuffer_flash + 5), R17
   1147          
   1148          }
   \   0000001C   9508               RET

   \                                 In  segment SWITCH, align 2, keep-with-next
   \                     `?<Jumptable for ATA_moduleTestSoftware_flash_C_0`:
   \   00000000   01                 DB      1
   \   00000001   00                 DB      0
   \   00000002   ....               DW      (??ATA_moduleTestSoftware_flash_C_22) /2
   \   00000004   001C               DW      28
   \   00000006   ....               DW      (??ATA_moduleTestSoftware_flash_C_0) /2
   \   00000008   ....               DW      (??ATA_moduleTestSoftware_flash_C_0) /2
   \   0000000A   ....               DW      (??ATA_moduleTestSoftware_flash_C_2) /2
   \   0000000C   ....               DW      (??ATA_moduleTestSoftware_flash_C_3) /2
   \   0000000E   ....               DW      (??ATA_moduleTestSoftware_flash_C_22) /2
   \   00000010   ....               DW      (??ATA_moduleTestSoftware_flash_C_22) /2
   \   00000012   ....               DW      (??ATA_moduleTestSoftware_flash_C_22) /2
   \   00000014   ....               DW      (??ATA_moduleTestSoftware_flash_C_22) /2
   \   00000016   ....               DW      (??ATA_moduleTestSoftware_flash_C_22) /2
   \   00000018   ....               DW      (??ATA_moduleTestSoftware_flash_C_22) /2
   \   0000001A   ....               DW      (??ATA_moduleTestSoftware_flash_C_4) /2
   \   0000001C   ....               DW      (??ATA_moduleTestSoftware_flash_C_5) /2
   \   0000001E   ....               DW      (??ATA_moduleTestSoftware_flash_C_6) /2
   \   00000020   ....               DW      (??ATA_moduleTestSoftware_flash_C_7) /2
   \   00000022   ....               DW      (??ATA_moduleTestSoftware_flash_C_8) /2
   \   00000024   ....               DW      (??ATA_moduleTestSoftware_flash_C_9) /2
   \   00000026   ....               DW      (??ATA_moduleTestSoftware_flash_C_10) /2
   \   00000028   ....               DW      (??ATA_moduleTestSoftware_flash_C_11) /2
   \   0000002A   ....               DW      (??ATA_moduleTestSoftware_flash_C_12) /2
   \   0000002C   ....               DW      (??ATA_moduleTestSoftware_flash_C_13) /2
   \   0000002E   ....               DW      (??ATA_moduleTestSoftware_flash_C_14) /2
   \   00000030   ....               DW      (??ATA_moduleTestSoftware_flash_C_15) /2
   \   00000032   ....               DW      (??ATA_moduleTestSoftware_flash_C_16) /2
   \   00000034   ....               DW      (??ATA_moduleTestSoftware_flash_C_17) /2
   \   00000036   ....               DW      (??ATA_moduleTestSoftware_flash_C_18) /2
   \   00000038   ....               DW      (??ATA_moduleTestSoftware_flash_C_19) /2
   \   0000003A   ....               DW      (??ATA_moduleTestSoftware_flash_C_20) /2
   \   0000003C   ....               DW      (??ATA_moduleTestSoftware_flash_C_21) /2

   \                                 In  segment SWITCH, align 2, keep-with-next
   \                     `?<Jumptable for ATA_moduleTestIicIRQ_flash_C>_0`:
   \   00000000   00                 DB      0
   \   00000001   00                 DB      0
   \   00000002   ....               DW      (??ATA_moduleTestIicIRQ_flash_C_2) /2
   \   00000004   0033               DW      51
   \   00000006   ....               DW      (??ATA_moduleTestIicIRQ_flash_C_0) /2
   \   00000008   ....               DW      (??ATA_moduleTestIicIRQ_flash_C_3) /2
   \   0000000A   ....               DW      (??ATA_moduleTestIicIRQ_flash_C_5) /2
   \   0000000C   ....               DW      (??ATA_moduleTestIicIRQ_flash_C_7) /2
   \   0000000E   ....               DW      (??ATA_moduleTestIicIRQ_flash_C_9) /2
   \   00000010   ....               DW      (??ATA_moduleTestIicIRQ_flash_C_11) /2
   \   00000012   ....               DW      (??ATA_moduleTestIicIRQ_flash_C_13) /2
   \   00000014   ....               DW      (??ATA_moduleTestIicIRQ_flash_C_15) /2
   \   00000016   ....               DW      (??ATA_moduleTestIicIRQ_flash_C_17) /2
   \   00000018   ....               DW      (??ATA_moduleTestIicIRQ_flash_C_19) /2
   \   0000001A   ....               DW      (??ATA_moduleTestIicIRQ_flash_C_20) /2
   \   0000001C   ....               DW      (??ATA_moduleTestIicIRQ_flash_C_21) /2
   \   0000001E   ....               DW      (??ATA_moduleTestIicIRQ_flash_C_23) /2
   \   00000020   ....               DW      (??ATA_moduleTestIicIRQ_flash_C_24) /2
   \   00000022   ....               DW      (??ATA_moduleTestIicIRQ_flash_C_25) /2
   \   00000024   ....               DW      (??ATA_moduleTestIicIRQ_flash_C_26) /2
   \   00000026   ....               DW      (??ATA_moduleTestIicIRQ_flash_C_27) /2
   \   00000028   ....               DW      (??ATA_moduleTestIicIRQ_flash_C_28) /2
   \   0000002A   ....               DW      (??ATA_moduleTestIicIRQ_flash_C_29) /2
   \   0000002C   ....               DW      (??ATA_moduleTestIicIRQ_flash_C_30) /2
   \   0000002E   ....               DW      (??ATA_moduleTestIicIRQ_flash_C_31) /2
   \   00000030   ....               DW      (??ATA_moduleTestIicIRQ_flash_C_33) /2
   \   00000032   ....               DW      (??ATA_moduleTestIicIRQ_flash_C_34) /2
   \   00000034   ....               DW      (??ATA_moduleTestIicIRQ_flash_C_35) /2
   \   00000036   ....               DW      (??ATA_moduleTestIicIRQ_flash_C_36) /2
   \   00000038   ....               DW      (??ATA_moduleTestIicIRQ_flash_C_38) /2
   \   0000003A   ....               DW      (??ATA_moduleTestIicIRQ_flash_C_41) /2
   \   0000003C   ....               DW      (??ATA_moduleTestIicIRQ_flash_C_43) /2
   \   0000003E   ....               DW      (??ATA_moduleTestIicIRQ_flash_C_47) /2
   \   00000040   ....               DW      (??ATA_moduleTestIicIRQ_flash_C_44) /2
   \   00000042   ....               DW      (??ATA_moduleTestIicIRQ_flash_C_44) /2
   \   00000044   ....               DW      (??ATA_moduleTestIicIRQ_flash_C_44) /2
   \   00000046   ....               DW      (??ATA_moduleTestIicIRQ_flash_C_44) /2
   \   00000048   ....               DW      (??ATA_moduleTestIicIRQ_flash_C_44) /2
   \   0000004A   ....               DW      (??ATA_moduleTestIicIRQ_flash_C_44) /2
   \   0000004C   ....               DW      (??ATA_moduleTestIicIRQ_flash_C_44) /2
   \   0000004E   ....               DW      (??ATA_moduleTestIicIRQ_flash_C_45) /2
   \   00000050   ....               DW      (??ATA_moduleTestIicIRQ_flash_C_50) /2
   \   00000052   ....               DW      (??ATA_moduleTestIicIRQ_flash_C_49) /2
   \   00000054   ....               DW      (??ATA_moduleTestIicIRQ_flash_C_52) /2
   \   00000056   ....               DW      (??ATA_moduleTestIicIRQ_flash_C_53) /2
   \   00000058   ....               DW      (??ATA_moduleTestIicIRQ_flash_C_54) /2
   \   0000005A   ....               DW      (??ATA_moduleTestIicIRQ_flash_C_56) /2
   \   0000005C   ....               DW      (??ATA_moduleTestIicIRQ_flash_C_58) /2
   \   0000005E   ....               DW      (??ATA_moduleTestIicIRQ_flash_C_42) /2
   \   00000060   ....               DW      (??ATA_moduleTestIicIRQ_flash_C_59) /2
   \   00000062   ....               DW      (??ATA_moduleTestIicIRQ_flash_C_61) /2
   \   00000064   ....               DW      (??ATA_moduleTestIicIRQ_flash_C_62) /2
   \   00000066   ....               DW      (??ATA_moduleTestIicIRQ_flash_C_63) /2
   \   00000068   ....               DW      (??ATA_moduleTestIicIRQ_flash_C_66) /2
   \   0000006A   ....               DW      (??ATA_moduleTestIicIRQ_flash_C_68) /2

   \                                 In  segment SWITCH, align 2, keep-with-next
   \                     `?<Jumptable for ATA_moduleTestEep_flash_C>_0`:
   \   00000000   00                 DB      0
   \   00000001   00                 DB      0
   \   00000002   ....               DW      (??ATA_moduleTestEep_flash_C_16) /2
   \   00000004   0009               DW      9
   \   00000006   ....               DW      (??ATA_moduleTestEep_flash_C_0) /2
   \   00000008   ....               DW      (??ATA_moduleTestEep_flash_C_1) /2
   \   0000000A   ....               DW      (??ATA_moduleTestEep_flash_C_3) /2
   \   0000000C   ....               DW      (??ATA_moduleTestEep_flash_C_5) /2
   \   0000000E   ....               DW      (??ATA_moduleTestEep_flash_C_7) /2
   \   00000010   ....               DW      (??ATA_moduleTestEep_flash_C_8) /2
   \   00000012   ....               DW      (??ATA_moduleTestEep_flash_C_10) /2
   \   00000014   ....               DW      (??ATA_moduleTestEep_flash_C_12) /2
   \   00000016   ....               DW      (??ATA_moduleTestEep_flash_C_14) /2

   \                                 In  segment SWITCH, align 2, keep-with-next
   \                     `?<Jumptable for ATA_moduleTestAes_flash_C>_0`:
   \   00000000   00                 DB      0
   \   00000001   00                 DB      0
   \   00000002   ....               DW      (??ATA_moduleTestAes_flash_C_11) /2
   \   00000004   0009               DW      9
   \   00000006   ....               DW      (??ATA_moduleTestAes_flash_C_0) /2
   \   00000008   ....               DW      (??ATA_moduleTestAes_flash_C_2) /2
   \   0000000A   ....               DW      (??ATA_moduleTestAes_flash_C_3) /2
   \   0000000C   ....               DW      (??ATA_moduleTestAes_flash_C_7) /2
   \   0000000E   ....               DW      (??ATA_moduleTestAes_flash_C_10) /2
   \   00000010   ....               DW      (??ATA_moduleTestAes_flash_C_4) /2
   \   00000012   ....               DW      (??ATA_moduleTestAes_flash_C_7) /2
   \   00000014   ....               DW      (??ATA_moduleTestAes_flash_C_8) /2
   \   00000016   ....               DW      (??ATA_moduleTestAes_flash_C_10) /2

   \                                 In  segment SWITCH, align 2, keep-with-next
   \                     `?<Jumptable for ATA_moduleTestLfRssiHandling_f_0`:
   \   00000000   00                 DB      0
   \   00000001   00                 DB      0
   \   00000002   ....               DW      (??ATA_moduleTestLfRssiHandling_flash_C_23) /2
   \   00000004   0010               DW      16
   \   00000006   ....               DW      (??ATA_moduleTestLfRssiHandling_flash_C_0) /2
   \   00000008   ....               DW      (??ATA_moduleTestLfRssiHandling_flash_C_2) /2
   \   0000000A   ....               DW      (??ATA_moduleTestLfRssiHandling_flash_C_3) /2
   \   0000000C   ....               DW      (??ATA_moduleTestLfRssiHandling_flash_C_5) /2
   \   0000000E   ....               DW      (??ATA_moduleTestLfRssiHandling_flash_C_6) /2
   \   00000010   ....               DW      (??ATA_moduleTestLfRssiHandling_flash_C_7) /2
   \   00000012   ....               DW      (??ATA_moduleTestLfRssiHandling_flash_C_8) /2
   \   00000014   ....               DW      (??ATA_moduleTestLfRssiHandling_flash_C_12) /2
   \   00000016   ....               DW      (??ATA_moduleTestLfRssiHandling_flash_C_15) /2
   \   00000018   ....               DW      (??ATA_moduleTestLfRssiHandling_flash_C_18) /2
   \   0000001A   ....               DW      (??ATA_moduleTestLfRssiHandling_flash_C_11) /2
   \   0000001C   ....               DW      (??ATA_moduleTestLfRssiHandling_flash_C_14) /2
   \   0000001E   ....               DW      (??ATA_moduleTestLfRssiHandling_flash_C_17) /2
   \   00000020   ....               DW      (??ATA_moduleTestLfRssiHandling_flash_C_20) /2
   \   00000022   ....               DW      (??ATA_moduleTestLfRssiHandling_flash_C_21) /2
   \   00000024   ....               DW      (??ATA_moduleTestLfRssiHandling_flash_C_22) /2

   Maximum stack usage in bytes:

   CSTACK RSTACK Function
   ------ ------ --------
      0      2   ATA_moduleTestAes_flash_C
        0      2   -> ATA_aesDecryptData_C
        0      2   -> ATA_aesEncryptData_C
        0      2   -> ATA_aesSetConfig_C
      0      2   ATA_moduleTestClkExtClockHandling_flash_C
        0      2   -> ATA_globalsClkSwitchExt_C
        0      2   -> ATA_globalsClkSwitchFrc_C
        0      2   -> ATA_globalsClkSwitchMrc_C
      0      2   ATA_moduleTestClkMrcFrcHandling_flash_C
        0      2   -> ATA_globalsActivateXTO_C
        0      2   -> ATA_globalsClkSwitchFrcWithDelay_C
        0      2   -> ATA_globalsClkSwitchFrc_C
        0      2   -> ATA_globalsClkSwitchMrc_C
        0      2   -> ATA_globalsClkSwitchSrc_C
        0      2   -> ATA_globalsClkSwitchXTO_C
        0      2   -> ATA_globalsDeActivateXTO_C
      0      2   ATA_moduleTestEep_flash_C
        0      2   -> ATA_eepEEPaccessRightsChange_C
        0      2   -> ATA_eepFusesFix_C
        0      2   -> ATA_eepReadBytes_C
        0      2   -> ATA_eepWriteBytes_C
      2      2   ATA_moduleTestIicIRQ_flash_C
        0      2   -> ATA_twiBufferSetup_C
        0      2   -> ATA_twiClrError_C
        0      2   -> ATA_twiClrRxDataPend_C
        0      2   -> ATA_twiGetBuffer_C
        0      2   -> ATA_twiGetData_C
        0      2   -> ATA_twiHwSetup_C
        0      2   -> ATA_twiMasterTrigger_C
        0      2   -> ATA_twiOpen_C
        0      2   -> ATA_twiReset_C
        0      2   -> ATA_twiServeIsr_C
        0      2   -> ATA_twiSetBuffer_C
        0      2   -> ATA_twiSetData_C
        2      2   -> ATA_twiUse_C
      0      2   ATA_moduleTestIicPOL_flash_C
      0      2   ATA_moduleTestInit_flash_C
      0      2   ATA_moduleTestLfRssiCalc12q4_flash_C
        0      2   -> ATA_lfRssiCalcBappl_C
     13      2   ATA_moduleTestLfRssiHandling_flash_C
       13      2   -> ATA_eepReadBytes_C
       13      2   -> ATA_lfRssiCalc3dVec_C
       13      2   -> ATA_lfRssiCalcChanCalibVal_C
       13      2   -> ATA_lfRssiCalcChanCorr_C
       13      2   -> ATA_lfRssiCalcLog2Lin_C
       13      2   -> ATA_lfRssiClose_C
       13      2   -> ATA_lfRssiGetAverageResult_C
       13      2   -> ATA_lfRssiGetSamplesResult_C
       13      2   -> ATA_lfRssiInit_C
       13      2   -> ATA_lfRssiMeasStart_C
       13      2   -> ATA_lfRssiMeasStop_C
       13      2   -> ATA_lfRssiOpen_C
       13      2   -> ATA_lfRssiSetEepromConfig_C
       13      2   -> ATA_moduleTestLfRssiCalc12q4_flash_C
      0      2   ATA_moduleTestLfTx_flash_C
        0      2   -> ATA_lfRxInit_C
      0      2   ATA_moduleTestRfrcc_flash_C
        0      2   -> ATA_rfrccGenRollCntMsg_C
      0      2   ATA_moduleTestSoftware_flash_C
        0      2   -> ATA_moduleTestAes_flash_C
        0      2   -> ATA_moduleTestCalib_flash_C
        0      2   -> ATA_moduleTestClkExtClockHandling_flash_C
        0      2   -> ATA_moduleTestClkMrcFrcHandling_flash_C
        0      2   -> ATA_moduleTestEep_flash_C
        0      2   -> ATA_moduleTestGlobals_flash_C
        0      2   -> ATA_moduleTestIicIRQ_flash_C
        0      2   -> ATA_moduleTestIicPOL_flash_C
        0      2   -> ATA_moduleTestLfRssiHandling_flash_C
        0      2   -> ATA_moduleTestLfTx_flash_C
        0      2   -> ATA_moduleTestRfTx_flash_C
        0      2   -> ATA_moduleTestRfrcc_flash_C
        0      2   -> ATA_moduleTestSpiBasicFunctions_flash_C
        0      2   -> ATA_moduleTestSpi_flash_C
        0      2   -> ATA_moduleTestTimer1Handling_flash_C
        0      2   -> ATA_moduleTestTimer2Handling_flash_C
        0      2   -> ATA_moduleTestTimer3Handling_flash_C
        0      2   -> ATA_moduleTestTimer4Handling_flash_C
        0      2   -> ATA_moduleTestTimer5Handling_flash_C
        0      2   -> ATA_moduleTestTimerMultipleOpen_flash_C
        0      2   -> ATA_moduleTestWatchdog_flash_C
      0      2   ATA_moduleTestTimer1Handling_flash_C
        0      2   -> ATA_timer1Close_C
        0      2   -> ATA_timer1Init_C
        0      2   -> ATA_timer1Open_C
      0      2   ATA_moduleTestTimer2Handling_flash_C
        0      2   -> ATA_timer2Close_C
        0      2   -> ATA_timer2Init_C
        0      2   -> ATA_timer2Open_C
      0      2   ATA_moduleTestTimer3Handling_flash_C
        0      2   -> ATA_timer3Close_C
        0      2   -> ATA_timer3Init_C
        0      2   -> ATA_timer3Open_C
      0      2   ATA_moduleTestTimer4Handling_flash_C
        0      2   -> ATA_timer4Close_C
        0      2   -> ATA_timer4Init_C
        0      2   -> ATA_timer4Open_C
      0      2   ATA_moduleTestTimer5Handling_flash_C
        0      2   -> ATA_timer5Close_C
        0      2   -> ATA_timer5Init_C
        0      2   -> ATA_timer5Open_C
      0      2   ATA_moduleTestTimerMultipleOpen_flash_C
        0      2   -> ATA_timer1Init_C
        0      2   -> ATA_timer1Open_C
        0      2   -> ATA_timer2Open_C
        0      2   -> ATA_timer3Open_C
        0      2   -> ATA_timer4Open_C
        0      2   -> ATA_timer5Open_C
      0      2   ATA_moduleTestWatchdog_flash_C
        0      2   -> ATA_globalsSleep_C
        0      2   -> ATA_globalsWdtDisable_C
        0      2   -> ATA_globalsWdtEnable_C


   Segment part sizes:

   Bytes  Function/Label
   -----  --------------
      24  ?<Jumptable for ATA_moduleTestAes_flash_C>_0
      24  ?<Jumptable for ATA_moduleTestEep_flash_C>_0
     108  ?<Jumptable for ATA_moduleTestIicIRQ_flash_C>_0
      38  ?<Jumptable for ATA_moduleTestLfRssiHandling_f_0
      62  ?<Jumptable for ATA_moduleTestSoftware_flash_C_0
       6  ?Subroutine0
       4  ?Subroutine1
       4  ?Subroutine2
       4  ?Subroutine3
      70  ATA_moduleTestAes_flash_C
      40  ATA_moduleTestClkExtClockHandling_flash_C
      64  ATA_moduleTestClkMrcFrcHandling_flash_C
     436  ATA_moduleTestEep_flash_C
     878  ATA_moduleTestIicIRQ_flash_C
       2  ATA_moduleTestIicPOL_flash_C
      14  ATA_moduleTestInit_flash_C
      30  ATA_moduleTestLfRssiCalc12q4_flash_C
     288  ATA_moduleTestLfRssiHandling_flash_C
      14  ATA_moduleTestLfTx_flash_C
      26  ATA_moduleTestRfrcc_flash_C
     114  ATA_moduleTestSoftware_flash_C
      50  ATA_moduleTestTimer1Handling_flash_C
      52  ATA_moduleTestTimer2Handling_flash_C
      56  ATA_moduleTestTimer3Handling_flash_C
      56  ATA_moduleTestTimer4Handling_flash_C
      52  ATA_moduleTestTimer5Handling_flash_C
      86  ATA_moduleTestTimerMultipleOpen_flash_C
      38  ATA_moduleTestWatchdog_flash_C
       1  _A_AESCR
       1  _A_EECR
      32  g_bModuleTestBuffer_flash
      16  g_bModuleTestIicBuffer1_flash
      16  g_bModuleTestIicBuffer2_flash
       1  g_bModuleTestWdtcr_flash
       1  g_bTimerModuleReturnValue_flash
       1  g_bTimerModuleTestStatus_flash
      22  g_sEepModuleTest_flash
       5  g_sModuleTestLfRssiRegs_flash
      22  g_sModuleTestLfRssiResult_flash
       7  g_sModuleTestLfRssi_flash
       2  g_sModuleTest_flash
      12  g_sTimer16BitParams_flash
      10  g_sTimer16BitSynParams_flash
       8  g_sTimer8BitParams_flash
       6  g_wLfRssiResultIntMeas
      12  g_wLfRssiSamplesResult
       4  g_wLfRssiSamplesResult3dVec
      12  g_wLfRssiSamplesResultCorrCalc
       4  g_wLfRssiSamplesResultLin

 
     2 bytes in segment ABSOLUTE
 2 384 bytes in segment CODE
   193 bytes in segment NEAR_N
   256 bytes in segment SWITCH
 
 2 640 bytes of CODE memory
   193 bytes of DATA memory (+ 2 bytes shared)

Errors: none
Warnings: none
